ARM GAS  C:\Users\YUEJIN~1\AppData\Local\Temp\ccpkfgFJ.s 			page 1


   1              		.cpu cortex-m3
   2              		.eabi_attribute 20, 1
   3              		.eabi_attribute 21, 1
   4              		.eabi_attribute 23, 3
   5              		.eabi_attribute 24, 1
   6              		.eabi_attribute 25, 1
   7              		.eabi_attribute 26, 1
   8              		.eabi_attribute 30, 1
   9              		.eabi_attribute 34, 1
  10              		.eabi_attribute 18, 4
  11              		.file	"oled.c"
  12              		.text
  13              	.Ltext0:
  14              		.cfi_sections	.debug_frame
  15              		.section	.text.oledDelayUs,"ax",%progbits
  16              		.align	1
  17              		.global	oledDelayUs
  18              		.arch armv7-m
  19              		.syntax unified
  20              		.thumb
  21              		.thumb_func
  22              		.fpu softvfp
  24              	oledDelayUs:
  25              	.LFB838:
  26              		.file 1 "Core/Src/oled.c"
   1:Core/Src/oled.c **** #include "oled.h"
   2:Core/Src/oled.c **** #include "oledfont.h"
   3:Core/Src/oled.c **** 
   4:Core/Src/oled.c **** //OLED的显存
   5:Core/Src/oled.c **** //存放格式如下.
   6:Core/Src/oled.c **** //[0]0 1 2 3 ... 127
   7:Core/Src/oled.c **** //[1]0 1 2 3 ... 127
   8:Core/Src/oled.c **** //[2]0 1 2 3 ... 127
   9:Core/Src/oled.c **** //[3]0 1 2 3 ... 127
  10:Core/Src/oled.c **** //[4]0 1 2 3 ... 127
  11:Core/Src/oled.c **** //[5]0 1 2 3 ... 127
  12:Core/Src/oled.c **** //[6]0 1 2 3 ... 127
  13:Core/Src/oled.c **** //[7]0 1 2 3 ... 127
  14:Core/Src/oled.c **** 
  15:Core/Src/oled.c **** void oledDelayUs()
  16:Core/Src/oled.c **** {
  27              		.loc 1 16 1 view -0
  28              		.cfi_startproc
  29              		@ args = 0, pretend = 0, frame = 0
  30              		@ frame_needed = 0, uses_anonymous_args = 0
  31              		@ link register save eliminated.
  17:Core/Src/oled.c ****     // LL_TIM_EnableCounter(TIM3);
  18:Core/Src/oled.c ****     // while (LL_TIM_IsEnabledCounter(TIM3))
  19:Core/Src/oled.c ****     // {
  20:Core/Src/oled.c ****     //     // wait
  21:Core/Src/oled.c ****     // }
  22:Core/Src/oled.c **** }
  32              		.loc 1 22 1 view .LVU1
  33 0000 7047     		bx	lr
  34              		.cfi_endproc
  35              	.LFE838:
  37              		.section	.text.OLED_SCLK_Clr,"ax",%progbits
ARM GAS  C:\Users\YUEJIN~1\AppData\Local\Temp\ccpkfgFJ.s 			page 2


  38              		.align	1
  39              		.global	OLED_SCLK_Clr
  40              		.syntax unified
  41              		.thumb
  42              		.thumb_func
  43              		.fpu softvfp
  45              	OLED_SCLK_Clr:
  46              	.LFB839:
  23:Core/Src/oled.c **** 
  24:Core/Src/oled.c **** /* static inline */ void OLED_SCLK_Clr()
  25:Core/Src/oled.c **** {
  47              		.loc 1 25 1 view -0
  48              		.cfi_startproc
  49              		@ args = 0, pretend = 0, frame = 0
  50              		@ frame_needed = 0, uses_anonymous_args = 0
  51              		@ link register save eliminated.
  26:Core/Src/oled.c ****     LL_GPIO_ResetOutputPin(SCL_GPIO_Port, SCL_Pin);
  52              		.loc 1 26 5 view .LVU3
  53              	.LVL0:
  54              	.LBB10:
  55              	.LBI10:
  56              		.file 2 "Drivers/STM32F1xx_HAL_Driver/Inc/stm32f1xx_ll_gpio.h"
   1:Drivers/STM32F1xx_HAL_Driver/Inc/stm32f1xx_ll_gpio.h **** /**
   2:Drivers/STM32F1xx_HAL_Driver/Inc/stm32f1xx_ll_gpio.h ****   ******************************************************************************
   3:Drivers/STM32F1xx_HAL_Driver/Inc/stm32f1xx_ll_gpio.h ****   * @file    stm32f1xx_ll_gpio.h
   4:Drivers/STM32F1xx_HAL_Driver/Inc/stm32f1xx_ll_gpio.h ****   * @author  MCD Application Team
   5:Drivers/STM32F1xx_HAL_Driver/Inc/stm32f1xx_ll_gpio.h ****   * @brief   Header file of GPIO LL module.
   6:Drivers/STM32F1xx_HAL_Driver/Inc/stm32f1xx_ll_gpio.h ****   ******************************************************************************
   7:Drivers/STM32F1xx_HAL_Driver/Inc/stm32f1xx_ll_gpio.h ****   * @attention
   8:Drivers/STM32F1xx_HAL_Driver/Inc/stm32f1xx_ll_gpio.h ****   *
   9:Drivers/STM32F1xx_HAL_Driver/Inc/stm32f1xx_ll_gpio.h ****   * <h2><center>&copy; Copyright (c) 2016 STMicroelectronics.
  10:Drivers/STM32F1xx_HAL_Driver/Inc/stm32f1xx_ll_gpio.h ****   * All rights reserved.</center></h2>
  11:Drivers/STM32F1xx_HAL_Driver/Inc/stm32f1xx_ll_gpio.h ****   *
  12:Drivers/STM32F1xx_HAL_Driver/Inc/stm32f1xx_ll_gpio.h ****   * This software component is licensed by ST under BSD 3-Clause license,
  13:Drivers/STM32F1xx_HAL_Driver/Inc/stm32f1xx_ll_gpio.h ****   * the "License"; You may not use this file except in compliance with the
  14:Drivers/STM32F1xx_HAL_Driver/Inc/stm32f1xx_ll_gpio.h ****   * License. You may obtain a copy of the License at:
  15:Drivers/STM32F1xx_HAL_Driver/Inc/stm32f1xx_ll_gpio.h ****   *                        opensource.org/licenses/BSD-3-Clause
  16:Drivers/STM32F1xx_HAL_Driver/Inc/stm32f1xx_ll_gpio.h ****   *
  17:Drivers/STM32F1xx_HAL_Driver/Inc/stm32f1xx_ll_gpio.h ****   ******************************************************************************
  18:Drivers/STM32F1xx_HAL_Driver/Inc/stm32f1xx_ll_gpio.h ****   */
  19:Drivers/STM32F1xx_HAL_Driver/Inc/stm32f1xx_ll_gpio.h **** 
  20:Drivers/STM32F1xx_HAL_Driver/Inc/stm32f1xx_ll_gpio.h **** /* Define to prevent recursive inclusion -------------------------------------*/
  21:Drivers/STM32F1xx_HAL_Driver/Inc/stm32f1xx_ll_gpio.h **** #ifndef STM32F1xx_LL_GPIO_H
  22:Drivers/STM32F1xx_HAL_Driver/Inc/stm32f1xx_ll_gpio.h **** #define STM32F1xx_LL_GPIO_H
  23:Drivers/STM32F1xx_HAL_Driver/Inc/stm32f1xx_ll_gpio.h **** 
  24:Drivers/STM32F1xx_HAL_Driver/Inc/stm32f1xx_ll_gpio.h **** #ifdef __cplusplus
  25:Drivers/STM32F1xx_HAL_Driver/Inc/stm32f1xx_ll_gpio.h **** extern "C" {
  26:Drivers/STM32F1xx_HAL_Driver/Inc/stm32f1xx_ll_gpio.h **** #endif
  27:Drivers/STM32F1xx_HAL_Driver/Inc/stm32f1xx_ll_gpio.h **** 
  28:Drivers/STM32F1xx_HAL_Driver/Inc/stm32f1xx_ll_gpio.h **** /* Includes ------------------------------------------------------------------*/
  29:Drivers/STM32F1xx_HAL_Driver/Inc/stm32f1xx_ll_gpio.h **** #include "stm32f1xx.h"
  30:Drivers/STM32F1xx_HAL_Driver/Inc/stm32f1xx_ll_gpio.h **** 
  31:Drivers/STM32F1xx_HAL_Driver/Inc/stm32f1xx_ll_gpio.h **** /** @addtogroup STM32F1xx_LL_Driver
  32:Drivers/STM32F1xx_HAL_Driver/Inc/stm32f1xx_ll_gpio.h ****   * @{
  33:Drivers/STM32F1xx_HAL_Driver/Inc/stm32f1xx_ll_gpio.h ****   */
  34:Drivers/STM32F1xx_HAL_Driver/Inc/stm32f1xx_ll_gpio.h **** 
  35:Drivers/STM32F1xx_HAL_Driver/Inc/stm32f1xx_ll_gpio.h **** #if defined (GPIOA) || defined (GPIOB) || defined (GPIOC) || defined (GPIOD) || defined (GPIOE) || 
ARM GAS  C:\Users\YUEJIN~1\AppData\Local\Temp\ccpkfgFJ.s 			page 3


  36:Drivers/STM32F1xx_HAL_Driver/Inc/stm32f1xx_ll_gpio.h **** 
  37:Drivers/STM32F1xx_HAL_Driver/Inc/stm32f1xx_ll_gpio.h **** /** @defgroup GPIO_LL GPIO
  38:Drivers/STM32F1xx_HAL_Driver/Inc/stm32f1xx_ll_gpio.h ****   * @{
  39:Drivers/STM32F1xx_HAL_Driver/Inc/stm32f1xx_ll_gpio.h ****   */
  40:Drivers/STM32F1xx_HAL_Driver/Inc/stm32f1xx_ll_gpio.h **** 
  41:Drivers/STM32F1xx_HAL_Driver/Inc/stm32f1xx_ll_gpio.h **** /* Private types -------------------------------------------------------------*/
  42:Drivers/STM32F1xx_HAL_Driver/Inc/stm32f1xx_ll_gpio.h **** /* Private variables ---------------------------------------------------------*/
  43:Drivers/STM32F1xx_HAL_Driver/Inc/stm32f1xx_ll_gpio.h **** /* Private constants ---------------------------------------------------------*/
  44:Drivers/STM32F1xx_HAL_Driver/Inc/stm32f1xx_ll_gpio.h **** 
  45:Drivers/STM32F1xx_HAL_Driver/Inc/stm32f1xx_ll_gpio.h **** /** @defgroup GPIO_LL_Private_Constants GPIO Private Constants
  46:Drivers/STM32F1xx_HAL_Driver/Inc/stm32f1xx_ll_gpio.h ****   * @{
  47:Drivers/STM32F1xx_HAL_Driver/Inc/stm32f1xx_ll_gpio.h ****   */
  48:Drivers/STM32F1xx_HAL_Driver/Inc/stm32f1xx_ll_gpio.h **** /* Defines used for Pin Mask Initialization */
  49:Drivers/STM32F1xx_HAL_Driver/Inc/stm32f1xx_ll_gpio.h **** #define GPIO_PIN_MASK_POS   8U
  50:Drivers/STM32F1xx_HAL_Driver/Inc/stm32f1xx_ll_gpio.h **** #define GPIO_PIN_NB         16U
  51:Drivers/STM32F1xx_HAL_Driver/Inc/stm32f1xx_ll_gpio.h **** /**
  52:Drivers/STM32F1xx_HAL_Driver/Inc/stm32f1xx_ll_gpio.h ****   * @}
  53:Drivers/STM32F1xx_HAL_Driver/Inc/stm32f1xx_ll_gpio.h ****   */
  54:Drivers/STM32F1xx_HAL_Driver/Inc/stm32f1xx_ll_gpio.h **** 
  55:Drivers/STM32F1xx_HAL_Driver/Inc/stm32f1xx_ll_gpio.h **** /* Private macros ------------------------------------------------------------*/
  56:Drivers/STM32F1xx_HAL_Driver/Inc/stm32f1xx_ll_gpio.h **** #if defined(USE_FULL_LL_DRIVER)
  57:Drivers/STM32F1xx_HAL_Driver/Inc/stm32f1xx_ll_gpio.h **** /** @defgroup GPIO_LL_Private_Macros GPIO Private Macros
  58:Drivers/STM32F1xx_HAL_Driver/Inc/stm32f1xx_ll_gpio.h ****   * @{
  59:Drivers/STM32F1xx_HAL_Driver/Inc/stm32f1xx_ll_gpio.h ****   */
  60:Drivers/STM32F1xx_HAL_Driver/Inc/stm32f1xx_ll_gpio.h **** 
  61:Drivers/STM32F1xx_HAL_Driver/Inc/stm32f1xx_ll_gpio.h **** /**
  62:Drivers/STM32F1xx_HAL_Driver/Inc/stm32f1xx_ll_gpio.h ****   * @}
  63:Drivers/STM32F1xx_HAL_Driver/Inc/stm32f1xx_ll_gpio.h ****   */
  64:Drivers/STM32F1xx_HAL_Driver/Inc/stm32f1xx_ll_gpio.h **** #endif /*USE_FULL_LL_DRIVER*/
  65:Drivers/STM32F1xx_HAL_Driver/Inc/stm32f1xx_ll_gpio.h **** 
  66:Drivers/STM32F1xx_HAL_Driver/Inc/stm32f1xx_ll_gpio.h **** /* Exported types ------------------------------------------------------------*/
  67:Drivers/STM32F1xx_HAL_Driver/Inc/stm32f1xx_ll_gpio.h **** #if defined(USE_FULL_LL_DRIVER)
  68:Drivers/STM32F1xx_HAL_Driver/Inc/stm32f1xx_ll_gpio.h **** /** @defgroup GPIO_LL_ES_INIT GPIO Exported Init structures
  69:Drivers/STM32F1xx_HAL_Driver/Inc/stm32f1xx_ll_gpio.h ****   * @{
  70:Drivers/STM32F1xx_HAL_Driver/Inc/stm32f1xx_ll_gpio.h ****   */
  71:Drivers/STM32F1xx_HAL_Driver/Inc/stm32f1xx_ll_gpio.h **** 
  72:Drivers/STM32F1xx_HAL_Driver/Inc/stm32f1xx_ll_gpio.h **** /**
  73:Drivers/STM32F1xx_HAL_Driver/Inc/stm32f1xx_ll_gpio.h ****   * @brief LL GPIO Init Structure definition
  74:Drivers/STM32F1xx_HAL_Driver/Inc/stm32f1xx_ll_gpio.h ****   */
  75:Drivers/STM32F1xx_HAL_Driver/Inc/stm32f1xx_ll_gpio.h **** typedef struct
  76:Drivers/STM32F1xx_HAL_Driver/Inc/stm32f1xx_ll_gpio.h **** {
  77:Drivers/STM32F1xx_HAL_Driver/Inc/stm32f1xx_ll_gpio.h ****   uint32_t Pin;          /*!< Specifies the GPIO pins to be configured.
  78:Drivers/STM32F1xx_HAL_Driver/Inc/stm32f1xx_ll_gpio.h ****                               This parameter can be any value of @ref GPIO_LL_EC_PIN */
  79:Drivers/STM32F1xx_HAL_Driver/Inc/stm32f1xx_ll_gpio.h **** 
  80:Drivers/STM32F1xx_HAL_Driver/Inc/stm32f1xx_ll_gpio.h ****   uint32_t Mode;         /*!< Specifies the operating mode for the selected pins.
  81:Drivers/STM32F1xx_HAL_Driver/Inc/stm32f1xx_ll_gpio.h ****                               This parameter can be a value of @ref GPIO_LL_EC_MODE.
  82:Drivers/STM32F1xx_HAL_Driver/Inc/stm32f1xx_ll_gpio.h **** 
  83:Drivers/STM32F1xx_HAL_Driver/Inc/stm32f1xx_ll_gpio.h ****                               GPIO HW configuration can be modified afterwards using unitary functi
  84:Drivers/STM32F1xx_HAL_Driver/Inc/stm32f1xx_ll_gpio.h **** 
  85:Drivers/STM32F1xx_HAL_Driver/Inc/stm32f1xx_ll_gpio.h ****   uint32_t Speed;        /*!< Specifies the speed for the selected pins.
  86:Drivers/STM32F1xx_HAL_Driver/Inc/stm32f1xx_ll_gpio.h ****                               This parameter can be a value of @ref GPIO_LL_EC_SPEED.
  87:Drivers/STM32F1xx_HAL_Driver/Inc/stm32f1xx_ll_gpio.h **** 
  88:Drivers/STM32F1xx_HAL_Driver/Inc/stm32f1xx_ll_gpio.h ****                               GPIO HW configuration can be modified afterwards using unitary functi
  89:Drivers/STM32F1xx_HAL_Driver/Inc/stm32f1xx_ll_gpio.h **** 
  90:Drivers/STM32F1xx_HAL_Driver/Inc/stm32f1xx_ll_gpio.h ****   uint32_t OutputType;   /*!< Specifies the operating output type for the selected pins.
  91:Drivers/STM32F1xx_HAL_Driver/Inc/stm32f1xx_ll_gpio.h ****                               This parameter can be a value of @ref GPIO_LL_EC_OUTPUT.
  92:Drivers/STM32F1xx_HAL_Driver/Inc/stm32f1xx_ll_gpio.h **** 
ARM GAS  C:\Users\YUEJIN~1\AppData\Local\Temp\ccpkfgFJ.s 			page 4


  93:Drivers/STM32F1xx_HAL_Driver/Inc/stm32f1xx_ll_gpio.h ****                               GPIO HW configuration can be modified afterwards using unitary functi
  94:Drivers/STM32F1xx_HAL_Driver/Inc/stm32f1xx_ll_gpio.h **** 
  95:Drivers/STM32F1xx_HAL_Driver/Inc/stm32f1xx_ll_gpio.h ****   uint32_t Pull;         /*!< Specifies the operating Pull-up/Pull down for the selected pins.
  96:Drivers/STM32F1xx_HAL_Driver/Inc/stm32f1xx_ll_gpio.h ****                               This parameter can be a value of @ref GPIO_LL_EC_PULL.
  97:Drivers/STM32F1xx_HAL_Driver/Inc/stm32f1xx_ll_gpio.h **** 
  98:Drivers/STM32F1xx_HAL_Driver/Inc/stm32f1xx_ll_gpio.h ****                               GPIO HW configuration can be modified afterwards using unitary functi
  99:Drivers/STM32F1xx_HAL_Driver/Inc/stm32f1xx_ll_gpio.h **** } LL_GPIO_InitTypeDef;
 100:Drivers/STM32F1xx_HAL_Driver/Inc/stm32f1xx_ll_gpio.h **** 
 101:Drivers/STM32F1xx_HAL_Driver/Inc/stm32f1xx_ll_gpio.h **** /**
 102:Drivers/STM32F1xx_HAL_Driver/Inc/stm32f1xx_ll_gpio.h ****   * @}
 103:Drivers/STM32F1xx_HAL_Driver/Inc/stm32f1xx_ll_gpio.h ****   */
 104:Drivers/STM32F1xx_HAL_Driver/Inc/stm32f1xx_ll_gpio.h **** #endif /* USE_FULL_LL_DRIVER */
 105:Drivers/STM32F1xx_HAL_Driver/Inc/stm32f1xx_ll_gpio.h **** 
 106:Drivers/STM32F1xx_HAL_Driver/Inc/stm32f1xx_ll_gpio.h **** /* Exported constants --------------------------------------------------------*/
 107:Drivers/STM32F1xx_HAL_Driver/Inc/stm32f1xx_ll_gpio.h **** /** @defgroup GPIO_LL_Exported_Constants GPIO Exported Constants
 108:Drivers/STM32F1xx_HAL_Driver/Inc/stm32f1xx_ll_gpio.h ****   * @{
 109:Drivers/STM32F1xx_HAL_Driver/Inc/stm32f1xx_ll_gpio.h ****   */
 110:Drivers/STM32F1xx_HAL_Driver/Inc/stm32f1xx_ll_gpio.h **** 
 111:Drivers/STM32F1xx_HAL_Driver/Inc/stm32f1xx_ll_gpio.h **** /** @defgroup GPIO_LL_EC_PIN PIN
 112:Drivers/STM32F1xx_HAL_Driver/Inc/stm32f1xx_ll_gpio.h ****   * @{
 113:Drivers/STM32F1xx_HAL_Driver/Inc/stm32f1xx_ll_gpio.h ****   */
 114:Drivers/STM32F1xx_HAL_Driver/Inc/stm32f1xx_ll_gpio.h **** #define LL_GPIO_PIN_0                    ((GPIO_BSRR_BS0  << GPIO_PIN_MASK_POS) | 0x00000001U)  /*!
 115:Drivers/STM32F1xx_HAL_Driver/Inc/stm32f1xx_ll_gpio.h **** #define LL_GPIO_PIN_1                    ((GPIO_BSRR_BS1  << GPIO_PIN_MASK_POS) | 0x00000002U)  /*!
 116:Drivers/STM32F1xx_HAL_Driver/Inc/stm32f1xx_ll_gpio.h **** #define LL_GPIO_PIN_2                    ((GPIO_BSRR_BS2  << GPIO_PIN_MASK_POS) | 0x00000004U)  /*!
 117:Drivers/STM32F1xx_HAL_Driver/Inc/stm32f1xx_ll_gpio.h **** #define LL_GPIO_PIN_3                    ((GPIO_BSRR_BS3  << GPIO_PIN_MASK_POS) | 0x00000008U)  /*!
 118:Drivers/STM32F1xx_HAL_Driver/Inc/stm32f1xx_ll_gpio.h **** #define LL_GPIO_PIN_4                    ((GPIO_BSRR_BS4  << GPIO_PIN_MASK_POS) | 0x00000010U)  /*!
 119:Drivers/STM32F1xx_HAL_Driver/Inc/stm32f1xx_ll_gpio.h **** #define LL_GPIO_PIN_5                    ((GPIO_BSRR_BS5  << GPIO_PIN_MASK_POS) | 0x00000020U)  /*!
 120:Drivers/STM32F1xx_HAL_Driver/Inc/stm32f1xx_ll_gpio.h **** #define LL_GPIO_PIN_6                    ((GPIO_BSRR_BS6  << GPIO_PIN_MASK_POS) | 0x00000040U)  /*!
 121:Drivers/STM32F1xx_HAL_Driver/Inc/stm32f1xx_ll_gpio.h **** #define LL_GPIO_PIN_7                    ((GPIO_BSRR_BS7  << GPIO_PIN_MASK_POS) | 0x00000080U)  /*!
 122:Drivers/STM32F1xx_HAL_Driver/Inc/stm32f1xx_ll_gpio.h **** #define LL_GPIO_PIN_8                    ((GPIO_BSRR_BS8  << GPIO_PIN_MASK_POS) | 0x04000001U)  /*!
 123:Drivers/STM32F1xx_HAL_Driver/Inc/stm32f1xx_ll_gpio.h **** #define LL_GPIO_PIN_9                    ((GPIO_BSRR_BS9  << GPIO_PIN_MASK_POS) | 0x04000002U)  /*!
 124:Drivers/STM32F1xx_HAL_Driver/Inc/stm32f1xx_ll_gpio.h **** #define LL_GPIO_PIN_10                   ((GPIO_BSRR_BS10 << GPIO_PIN_MASK_POS) | 0x04000004U)  /*!
 125:Drivers/STM32F1xx_HAL_Driver/Inc/stm32f1xx_ll_gpio.h **** #define LL_GPIO_PIN_11                   ((GPIO_BSRR_BS11 << GPIO_PIN_MASK_POS) | 0x04000008U)  /*!
 126:Drivers/STM32F1xx_HAL_Driver/Inc/stm32f1xx_ll_gpio.h **** #define LL_GPIO_PIN_12                   ((GPIO_BSRR_BS12 << GPIO_PIN_MASK_POS) | 0x04000010U)  /*!
 127:Drivers/STM32F1xx_HAL_Driver/Inc/stm32f1xx_ll_gpio.h **** #define LL_GPIO_PIN_13                   ((GPIO_BSRR_BS13 << GPIO_PIN_MASK_POS) | 0x04000020U)  /*!
 128:Drivers/STM32F1xx_HAL_Driver/Inc/stm32f1xx_ll_gpio.h **** #define LL_GPIO_PIN_14                   ((GPIO_BSRR_BS14 << GPIO_PIN_MASK_POS) | 0x04000040U)  /*!
 129:Drivers/STM32F1xx_HAL_Driver/Inc/stm32f1xx_ll_gpio.h **** #define LL_GPIO_PIN_15                   ((GPIO_BSRR_BS15 << GPIO_PIN_MASK_POS) | 0x04000080U)  /*!
 130:Drivers/STM32F1xx_HAL_Driver/Inc/stm32f1xx_ll_gpio.h **** #define LL_GPIO_PIN_ALL                  (LL_GPIO_PIN_0  | LL_GPIO_PIN_1  | LL_GPIO_PIN_2  | \
 131:Drivers/STM32F1xx_HAL_Driver/Inc/stm32f1xx_ll_gpio.h ****                                           LL_GPIO_PIN_3  | LL_GPIO_PIN_4  | LL_GPIO_PIN_5  | \
 132:Drivers/STM32F1xx_HAL_Driver/Inc/stm32f1xx_ll_gpio.h ****                                           LL_GPIO_PIN_6  | LL_GPIO_PIN_7  | LL_GPIO_PIN_8  | \
 133:Drivers/STM32F1xx_HAL_Driver/Inc/stm32f1xx_ll_gpio.h ****                                           LL_GPIO_PIN_9  | LL_GPIO_PIN_10 | LL_GPIO_PIN_11 | \
 134:Drivers/STM32F1xx_HAL_Driver/Inc/stm32f1xx_ll_gpio.h ****                                           LL_GPIO_PIN_12 | LL_GPIO_PIN_13 | LL_GPIO_PIN_14 | \
 135:Drivers/STM32F1xx_HAL_Driver/Inc/stm32f1xx_ll_gpio.h ****                                           LL_GPIO_PIN_15)                                      /*!<
 136:Drivers/STM32F1xx_HAL_Driver/Inc/stm32f1xx_ll_gpio.h **** /**
 137:Drivers/STM32F1xx_HAL_Driver/Inc/stm32f1xx_ll_gpio.h ****   * @}
 138:Drivers/STM32F1xx_HAL_Driver/Inc/stm32f1xx_ll_gpio.h ****   */
 139:Drivers/STM32F1xx_HAL_Driver/Inc/stm32f1xx_ll_gpio.h **** 
 140:Drivers/STM32F1xx_HAL_Driver/Inc/stm32f1xx_ll_gpio.h **** /** @defgroup GPIO_LL_EC_MODE Mode
 141:Drivers/STM32F1xx_HAL_Driver/Inc/stm32f1xx_ll_gpio.h ****   * @{
 142:Drivers/STM32F1xx_HAL_Driver/Inc/stm32f1xx_ll_gpio.h ****   */
 143:Drivers/STM32F1xx_HAL_Driver/Inc/stm32f1xx_ll_gpio.h **** #define LL_GPIO_MODE_ANALOG              0x00000000U       /*!< Select analog mode */
 144:Drivers/STM32F1xx_HAL_Driver/Inc/stm32f1xx_ll_gpio.h **** #define LL_GPIO_MODE_FLOATING            GPIO_CRL_CNF0_0   /*!< Select floating mode */
 145:Drivers/STM32F1xx_HAL_Driver/Inc/stm32f1xx_ll_gpio.h **** #define LL_GPIO_MODE_INPUT               GPIO_CRL_CNF0_1   /*!< Select input mode */
 146:Drivers/STM32F1xx_HAL_Driver/Inc/stm32f1xx_ll_gpio.h **** #define LL_GPIO_MODE_OUTPUT              GPIO_CRL_MODE0_0  /*!< Select general purpose output mode 
 147:Drivers/STM32F1xx_HAL_Driver/Inc/stm32f1xx_ll_gpio.h **** #define LL_GPIO_MODE_ALTERNATE           (GPIO_CRL_CNF0_1 | GPIO_CRL_MODE0_0) /*!< Select alternate
 148:Drivers/STM32F1xx_HAL_Driver/Inc/stm32f1xx_ll_gpio.h **** /**
 149:Drivers/STM32F1xx_HAL_Driver/Inc/stm32f1xx_ll_gpio.h ****   * @}
ARM GAS  C:\Users\YUEJIN~1\AppData\Local\Temp\ccpkfgFJ.s 			page 5


 150:Drivers/STM32F1xx_HAL_Driver/Inc/stm32f1xx_ll_gpio.h ****   */
 151:Drivers/STM32F1xx_HAL_Driver/Inc/stm32f1xx_ll_gpio.h **** 
 152:Drivers/STM32F1xx_HAL_Driver/Inc/stm32f1xx_ll_gpio.h **** /** @defgroup GPIO_LL_EC_OUTPUT Output Type
 153:Drivers/STM32F1xx_HAL_Driver/Inc/stm32f1xx_ll_gpio.h ****   * @{
 154:Drivers/STM32F1xx_HAL_Driver/Inc/stm32f1xx_ll_gpio.h ****   */
 155:Drivers/STM32F1xx_HAL_Driver/Inc/stm32f1xx_ll_gpio.h **** #define LL_GPIO_OUTPUT_PUSHPULL          0x00000000U                /*!< Select push-pull as output
 156:Drivers/STM32F1xx_HAL_Driver/Inc/stm32f1xx_ll_gpio.h **** #define LL_GPIO_OUTPUT_OPENDRAIN         GPIO_CRL_CNF0_0            /*!< Select open-drain as outpu
 157:Drivers/STM32F1xx_HAL_Driver/Inc/stm32f1xx_ll_gpio.h **** /**
 158:Drivers/STM32F1xx_HAL_Driver/Inc/stm32f1xx_ll_gpio.h ****   * @}
 159:Drivers/STM32F1xx_HAL_Driver/Inc/stm32f1xx_ll_gpio.h ****   */
 160:Drivers/STM32F1xx_HAL_Driver/Inc/stm32f1xx_ll_gpio.h **** 
 161:Drivers/STM32F1xx_HAL_Driver/Inc/stm32f1xx_ll_gpio.h **** /** @defgroup GPIO_LL_EC_SPEED Output Speed
 162:Drivers/STM32F1xx_HAL_Driver/Inc/stm32f1xx_ll_gpio.h ****   * @{
 163:Drivers/STM32F1xx_HAL_Driver/Inc/stm32f1xx_ll_gpio.h ****   */
 164:Drivers/STM32F1xx_HAL_Driver/Inc/stm32f1xx_ll_gpio.h **** #define LL_GPIO_MODE_OUTPUT_10MHz        GPIO_CRL_MODE0_0            /*!< Select Output mode, max s
 165:Drivers/STM32F1xx_HAL_Driver/Inc/stm32f1xx_ll_gpio.h **** #define LL_GPIO_MODE_OUTPUT_2MHz         GPIO_CRL_MODE0_1            /*!< Select Output mode, max s
 166:Drivers/STM32F1xx_HAL_Driver/Inc/stm32f1xx_ll_gpio.h **** #define LL_GPIO_MODE_OUTPUT_50MHz        GPIO_CRL_MODE0              /*!< Select Output mode, max s
 167:Drivers/STM32F1xx_HAL_Driver/Inc/stm32f1xx_ll_gpio.h **** /**
 168:Drivers/STM32F1xx_HAL_Driver/Inc/stm32f1xx_ll_gpio.h ****   * @}
 169:Drivers/STM32F1xx_HAL_Driver/Inc/stm32f1xx_ll_gpio.h ****   */
 170:Drivers/STM32F1xx_HAL_Driver/Inc/stm32f1xx_ll_gpio.h **** 
 171:Drivers/STM32F1xx_HAL_Driver/Inc/stm32f1xx_ll_gpio.h **** #define LL_GPIO_SPEED_FREQ_LOW           LL_GPIO_MODE_OUTPUT_2MHz    /*!< Select I/O low output spe
 172:Drivers/STM32F1xx_HAL_Driver/Inc/stm32f1xx_ll_gpio.h **** #define LL_GPIO_SPEED_FREQ_MEDIUM        LL_GPIO_MODE_OUTPUT_10MHz   /*!< Select I/O medium output 
 173:Drivers/STM32F1xx_HAL_Driver/Inc/stm32f1xx_ll_gpio.h **** #define LL_GPIO_SPEED_FREQ_HIGH          LL_GPIO_MODE_OUTPUT_50MHz   /*!< Select I/O high output sp
 174:Drivers/STM32F1xx_HAL_Driver/Inc/stm32f1xx_ll_gpio.h **** 
 175:Drivers/STM32F1xx_HAL_Driver/Inc/stm32f1xx_ll_gpio.h **** /** @defgroup GPIO_LL_EC_PULL Pull Up Pull Down
 176:Drivers/STM32F1xx_HAL_Driver/Inc/stm32f1xx_ll_gpio.h ****   * @{
 177:Drivers/STM32F1xx_HAL_Driver/Inc/stm32f1xx_ll_gpio.h ****   */
 178:Drivers/STM32F1xx_HAL_Driver/Inc/stm32f1xx_ll_gpio.h **** #define LL_GPIO_PULL_DOWN                0x00000000U    /*!< Select I/O pull down */
 179:Drivers/STM32F1xx_HAL_Driver/Inc/stm32f1xx_ll_gpio.h **** #define LL_GPIO_PULL_UP                  GPIO_ODR_ODR0  /*!< Select I/O pull up */
 180:Drivers/STM32F1xx_HAL_Driver/Inc/stm32f1xx_ll_gpio.h **** 
 181:Drivers/STM32F1xx_HAL_Driver/Inc/stm32f1xx_ll_gpio.h **** /**
 182:Drivers/STM32F1xx_HAL_Driver/Inc/stm32f1xx_ll_gpio.h ****   * @}
 183:Drivers/STM32F1xx_HAL_Driver/Inc/stm32f1xx_ll_gpio.h ****   */
 184:Drivers/STM32F1xx_HAL_Driver/Inc/stm32f1xx_ll_gpio.h **** 
 185:Drivers/STM32F1xx_HAL_Driver/Inc/stm32f1xx_ll_gpio.h **** /** @defgroup GPIO_LL_EVENTOUT_PIN EVENTOUT Pin
 186:Drivers/STM32F1xx_HAL_Driver/Inc/stm32f1xx_ll_gpio.h ****   * @{
 187:Drivers/STM32F1xx_HAL_Driver/Inc/stm32f1xx_ll_gpio.h ****   */
 188:Drivers/STM32F1xx_HAL_Driver/Inc/stm32f1xx_ll_gpio.h **** 
 189:Drivers/STM32F1xx_HAL_Driver/Inc/stm32f1xx_ll_gpio.h **** #define LL_GPIO_AF_EVENTOUT_PIN_0        AFIO_EVCR_PIN_PX0   /*!< EVENTOUT on pin 0 */
 190:Drivers/STM32F1xx_HAL_Driver/Inc/stm32f1xx_ll_gpio.h **** #define LL_GPIO_AF_EVENTOUT_PIN_1        AFIO_EVCR_PIN_PX1   /*!< EVENTOUT on pin 1 */
 191:Drivers/STM32F1xx_HAL_Driver/Inc/stm32f1xx_ll_gpio.h **** #define LL_GPIO_AF_EVENTOUT_PIN_2        AFIO_EVCR_PIN_PX2   /*!< EVENTOUT on pin 2 */
 192:Drivers/STM32F1xx_HAL_Driver/Inc/stm32f1xx_ll_gpio.h **** #define LL_GPIO_AF_EVENTOUT_PIN_3        AFIO_EVCR_PIN_PX3   /*!< EVENTOUT on pin 3 */
 193:Drivers/STM32F1xx_HAL_Driver/Inc/stm32f1xx_ll_gpio.h **** #define LL_GPIO_AF_EVENTOUT_PIN_4        AFIO_EVCR_PIN_PX4   /*!< EVENTOUT on pin 4 */
 194:Drivers/STM32F1xx_HAL_Driver/Inc/stm32f1xx_ll_gpio.h **** #define LL_GPIO_AF_EVENTOUT_PIN_5        AFIO_EVCR_PIN_PX5   /*!< EVENTOUT on pin 5 */
 195:Drivers/STM32F1xx_HAL_Driver/Inc/stm32f1xx_ll_gpio.h **** #define LL_GPIO_AF_EVENTOUT_PIN_6        AFIO_EVCR_PIN_PX6   /*!< EVENTOUT on pin 6 */
 196:Drivers/STM32F1xx_HAL_Driver/Inc/stm32f1xx_ll_gpio.h **** #define LL_GPIO_AF_EVENTOUT_PIN_7        AFIO_EVCR_PIN_PX7   /*!< EVENTOUT on pin 7 */
 197:Drivers/STM32F1xx_HAL_Driver/Inc/stm32f1xx_ll_gpio.h **** #define LL_GPIO_AF_EVENTOUT_PIN_8        AFIO_EVCR_PIN_PX8   /*!< EVENTOUT on pin 8 */
 198:Drivers/STM32F1xx_HAL_Driver/Inc/stm32f1xx_ll_gpio.h **** #define LL_GPIO_AF_EVENTOUT_PIN_9        AFIO_EVCR_PIN_PX9   /*!< EVENTOUT on pin 9 */
 199:Drivers/STM32F1xx_HAL_Driver/Inc/stm32f1xx_ll_gpio.h **** #define LL_GPIO_AF_EVENTOUT_PIN_10       AFIO_EVCR_PIN_PX10  /*!< EVENTOUT on pin 10 */
 200:Drivers/STM32F1xx_HAL_Driver/Inc/stm32f1xx_ll_gpio.h **** #define LL_GPIO_AF_EVENTOUT_PIN_11       AFIO_EVCR_PIN_PX11  /*!< EVENTOUT on pin 11 */
 201:Drivers/STM32F1xx_HAL_Driver/Inc/stm32f1xx_ll_gpio.h **** #define LL_GPIO_AF_EVENTOUT_PIN_12       AFIO_EVCR_PIN_PX12  /*!< EVENTOUT on pin 12 */
 202:Drivers/STM32F1xx_HAL_Driver/Inc/stm32f1xx_ll_gpio.h **** #define LL_GPIO_AF_EVENTOUT_PIN_13       AFIO_EVCR_PIN_PX13  /*!< EVENTOUT on pin 13 */
 203:Drivers/STM32F1xx_HAL_Driver/Inc/stm32f1xx_ll_gpio.h **** #define LL_GPIO_AF_EVENTOUT_PIN_14       AFIO_EVCR_PIN_PX14  /*!< EVENTOUT on pin 14 */
 204:Drivers/STM32F1xx_HAL_Driver/Inc/stm32f1xx_ll_gpio.h **** #define LL_GPIO_AF_EVENTOUT_PIN_15       AFIO_EVCR_PIN_PX15  /*!< EVENTOUT on pin 15 */
 205:Drivers/STM32F1xx_HAL_Driver/Inc/stm32f1xx_ll_gpio.h **** 
 206:Drivers/STM32F1xx_HAL_Driver/Inc/stm32f1xx_ll_gpio.h **** /**
ARM GAS  C:\Users\YUEJIN~1\AppData\Local\Temp\ccpkfgFJ.s 			page 6


 207:Drivers/STM32F1xx_HAL_Driver/Inc/stm32f1xx_ll_gpio.h ****   * @}
 208:Drivers/STM32F1xx_HAL_Driver/Inc/stm32f1xx_ll_gpio.h ****   */
 209:Drivers/STM32F1xx_HAL_Driver/Inc/stm32f1xx_ll_gpio.h **** 
 210:Drivers/STM32F1xx_HAL_Driver/Inc/stm32f1xx_ll_gpio.h **** /** @defgroup GPIO_LL_EVENTOUT_PORT EVENTOUT Port
 211:Drivers/STM32F1xx_HAL_Driver/Inc/stm32f1xx_ll_gpio.h ****   * @{
 212:Drivers/STM32F1xx_HAL_Driver/Inc/stm32f1xx_ll_gpio.h ****   */
 213:Drivers/STM32F1xx_HAL_Driver/Inc/stm32f1xx_ll_gpio.h **** 
 214:Drivers/STM32F1xx_HAL_Driver/Inc/stm32f1xx_ll_gpio.h **** #define LL_GPIO_AF_EVENTOUT_PORT_A       AFIO_EVCR_PORT_PA  /*!< EVENTOUT on port A */
 215:Drivers/STM32F1xx_HAL_Driver/Inc/stm32f1xx_ll_gpio.h **** #define LL_GPIO_AF_EVENTOUT_PORT_B       AFIO_EVCR_PORT_PB  /*!< EVENTOUT on port B */
 216:Drivers/STM32F1xx_HAL_Driver/Inc/stm32f1xx_ll_gpio.h **** #define LL_GPIO_AF_EVENTOUT_PORT_C       AFIO_EVCR_PORT_PC  /*!< EVENTOUT on port C */
 217:Drivers/STM32F1xx_HAL_Driver/Inc/stm32f1xx_ll_gpio.h **** #define LL_GPIO_AF_EVENTOUT_PORT_D       AFIO_EVCR_PORT_PD  /*!< EVENTOUT on port D */
 218:Drivers/STM32F1xx_HAL_Driver/Inc/stm32f1xx_ll_gpio.h **** #define LL_GPIO_AF_EVENTOUT_PORT_E       AFIO_EVCR_PORT_PE  /*!< EVENTOUT on port E */
 219:Drivers/STM32F1xx_HAL_Driver/Inc/stm32f1xx_ll_gpio.h **** 
 220:Drivers/STM32F1xx_HAL_Driver/Inc/stm32f1xx_ll_gpio.h **** /**
 221:Drivers/STM32F1xx_HAL_Driver/Inc/stm32f1xx_ll_gpio.h ****   * @}
 222:Drivers/STM32F1xx_HAL_Driver/Inc/stm32f1xx_ll_gpio.h ****   */
 223:Drivers/STM32F1xx_HAL_Driver/Inc/stm32f1xx_ll_gpio.h **** 
 224:Drivers/STM32F1xx_HAL_Driver/Inc/stm32f1xx_ll_gpio.h **** /** @defgroup GPIO_LL_EC_EXTI_PORT GPIO EXTI PORT
 225:Drivers/STM32F1xx_HAL_Driver/Inc/stm32f1xx_ll_gpio.h ****   * @{
 226:Drivers/STM32F1xx_HAL_Driver/Inc/stm32f1xx_ll_gpio.h ****   */
 227:Drivers/STM32F1xx_HAL_Driver/Inc/stm32f1xx_ll_gpio.h **** #define LL_GPIO_AF_EXTI_PORTA            0U   /*!< EXTI PORT A */
 228:Drivers/STM32F1xx_HAL_Driver/Inc/stm32f1xx_ll_gpio.h **** #define LL_GPIO_AF_EXTI_PORTB            1U   /*!< EXTI PORT B */
 229:Drivers/STM32F1xx_HAL_Driver/Inc/stm32f1xx_ll_gpio.h **** #define LL_GPIO_AF_EXTI_PORTC            2U   /*!< EXTI PORT C */
 230:Drivers/STM32F1xx_HAL_Driver/Inc/stm32f1xx_ll_gpio.h **** #define LL_GPIO_AF_EXTI_PORTD            3U   /*!< EXTI PORT D */
 231:Drivers/STM32F1xx_HAL_Driver/Inc/stm32f1xx_ll_gpio.h **** #define LL_GPIO_AF_EXTI_PORTE            4U   /*!< EXTI PORT E */
 232:Drivers/STM32F1xx_HAL_Driver/Inc/stm32f1xx_ll_gpio.h **** #define LL_GPIO_AF_EXTI_PORTF            5U   /*!< EXTI PORT F */
 233:Drivers/STM32F1xx_HAL_Driver/Inc/stm32f1xx_ll_gpio.h **** #define LL_GPIO_AF_EXTI_PORTG            6U   /*!< EXTI PORT G */
 234:Drivers/STM32F1xx_HAL_Driver/Inc/stm32f1xx_ll_gpio.h **** /**
 235:Drivers/STM32F1xx_HAL_Driver/Inc/stm32f1xx_ll_gpio.h ****   * @}
 236:Drivers/STM32F1xx_HAL_Driver/Inc/stm32f1xx_ll_gpio.h ****   */
 237:Drivers/STM32F1xx_HAL_Driver/Inc/stm32f1xx_ll_gpio.h **** 
 238:Drivers/STM32F1xx_HAL_Driver/Inc/stm32f1xx_ll_gpio.h **** /** @defgroup GPIO_LL_EC_EXTI_LINE GPIO EXTI LINE
 239:Drivers/STM32F1xx_HAL_Driver/Inc/stm32f1xx_ll_gpio.h ****   * @{
 240:Drivers/STM32F1xx_HAL_Driver/Inc/stm32f1xx_ll_gpio.h ****   */
 241:Drivers/STM32F1xx_HAL_Driver/Inc/stm32f1xx_ll_gpio.h **** #define LL_GPIO_AF_EXTI_LINE0            (0x000FU << 16U | 0U)  /*!< EXTI_POSITION_0  | EXTICR[0] *
 242:Drivers/STM32F1xx_HAL_Driver/Inc/stm32f1xx_ll_gpio.h **** #define LL_GPIO_AF_EXTI_LINE1            (0x00F0U << 16U | 0U)  /*!< EXTI_POSITION_4  | EXTICR[0] *
 243:Drivers/STM32F1xx_HAL_Driver/Inc/stm32f1xx_ll_gpio.h **** #define LL_GPIO_AF_EXTI_LINE2            (0x0F00U << 16U | 0U)  /*!< EXTI_POSITION_8  | EXTICR[0] *
 244:Drivers/STM32F1xx_HAL_Driver/Inc/stm32f1xx_ll_gpio.h **** #define LL_GPIO_AF_EXTI_LINE3            (0xF000U << 16U | 0U)  /*!< EXTI_POSITION_12 | EXTICR[0] *
 245:Drivers/STM32F1xx_HAL_Driver/Inc/stm32f1xx_ll_gpio.h **** #define LL_GPIO_AF_EXTI_LINE4            (0x000FU << 16U | 1U)  /*!< EXTI_POSITION_0  | EXTICR[1] *
 246:Drivers/STM32F1xx_HAL_Driver/Inc/stm32f1xx_ll_gpio.h **** #define LL_GPIO_AF_EXTI_LINE5            (0x00F0U << 16U | 1U)  /*!< EXTI_POSITION_4  | EXTICR[1] *
 247:Drivers/STM32F1xx_HAL_Driver/Inc/stm32f1xx_ll_gpio.h **** #define LL_GPIO_AF_EXTI_LINE6            (0x0F00U << 16U | 1U)  /*!< EXTI_POSITION_8  | EXTICR[1] *
 248:Drivers/STM32F1xx_HAL_Driver/Inc/stm32f1xx_ll_gpio.h **** #define LL_GPIO_AF_EXTI_LINE7            (0xF000U << 16U | 1U)  /*!< EXTI_POSITION_12 | EXTICR[1] *
 249:Drivers/STM32F1xx_HAL_Driver/Inc/stm32f1xx_ll_gpio.h **** #define LL_GPIO_AF_EXTI_LINE8            (0x000FU << 16U | 2U)  /*!< EXTI_POSITION_0  | EXTICR[2] *
 250:Drivers/STM32F1xx_HAL_Driver/Inc/stm32f1xx_ll_gpio.h **** #define LL_GPIO_AF_EXTI_LINE9            (0x00F0U << 16U | 2U)  /*!< EXTI_POSITION_4  | EXTICR[2] *
 251:Drivers/STM32F1xx_HAL_Driver/Inc/stm32f1xx_ll_gpio.h **** #define LL_GPIO_AF_EXTI_LINE10           (0x0F00U << 16U | 2U)  /*!< EXTI_POSITION_8  | EXTICR[2] *
 252:Drivers/STM32F1xx_HAL_Driver/Inc/stm32f1xx_ll_gpio.h **** #define LL_GPIO_AF_EXTI_LINE11           (0xF000U << 16U | 2U)  /*!< EXTI_POSITION_12 | EXTICR[2] *
 253:Drivers/STM32F1xx_HAL_Driver/Inc/stm32f1xx_ll_gpio.h **** #define LL_GPIO_AF_EXTI_LINE12           (0x000FU << 16U | 3U)  /*!< EXTI_POSITION_0  | EXTICR[3] *
 254:Drivers/STM32F1xx_HAL_Driver/Inc/stm32f1xx_ll_gpio.h **** #define LL_GPIO_AF_EXTI_LINE13           (0x00F0U << 16U | 3U)  /*!< EXTI_POSITION_4  | EXTICR[3] *
 255:Drivers/STM32F1xx_HAL_Driver/Inc/stm32f1xx_ll_gpio.h **** #define LL_GPIO_AF_EXTI_LINE14           (0x0F00U << 16U | 3U)  /*!< EXTI_POSITION_8  | EXTICR[3] *
 256:Drivers/STM32F1xx_HAL_Driver/Inc/stm32f1xx_ll_gpio.h **** #define LL_GPIO_AF_EXTI_LINE15           (0xF000U << 16U | 3U)  /*!< EXTI_POSITION_12 | EXTICR[3] *
 257:Drivers/STM32F1xx_HAL_Driver/Inc/stm32f1xx_ll_gpio.h **** /**
 258:Drivers/STM32F1xx_HAL_Driver/Inc/stm32f1xx_ll_gpio.h ****   * @}
 259:Drivers/STM32F1xx_HAL_Driver/Inc/stm32f1xx_ll_gpio.h ****   */
 260:Drivers/STM32F1xx_HAL_Driver/Inc/stm32f1xx_ll_gpio.h **** 
 261:Drivers/STM32F1xx_HAL_Driver/Inc/stm32f1xx_ll_gpio.h **** /**
 262:Drivers/STM32F1xx_HAL_Driver/Inc/stm32f1xx_ll_gpio.h ****   * @}
 263:Drivers/STM32F1xx_HAL_Driver/Inc/stm32f1xx_ll_gpio.h ****   */
ARM GAS  C:\Users\YUEJIN~1\AppData\Local\Temp\ccpkfgFJ.s 			page 7


 264:Drivers/STM32F1xx_HAL_Driver/Inc/stm32f1xx_ll_gpio.h **** 
 265:Drivers/STM32F1xx_HAL_Driver/Inc/stm32f1xx_ll_gpio.h **** /* Exported macro ------------------------------------------------------------*/
 266:Drivers/STM32F1xx_HAL_Driver/Inc/stm32f1xx_ll_gpio.h **** /** @defgroup GPIO_LL_Exported_Macros GPIO Exported Macros
 267:Drivers/STM32F1xx_HAL_Driver/Inc/stm32f1xx_ll_gpio.h ****   * @{
 268:Drivers/STM32F1xx_HAL_Driver/Inc/stm32f1xx_ll_gpio.h ****   */
 269:Drivers/STM32F1xx_HAL_Driver/Inc/stm32f1xx_ll_gpio.h **** 
 270:Drivers/STM32F1xx_HAL_Driver/Inc/stm32f1xx_ll_gpio.h **** /** @defgroup GPIO_LL_EM_WRITE_READ Common Write and read registers Macros
 271:Drivers/STM32F1xx_HAL_Driver/Inc/stm32f1xx_ll_gpio.h ****   * @{
 272:Drivers/STM32F1xx_HAL_Driver/Inc/stm32f1xx_ll_gpio.h ****   */
 273:Drivers/STM32F1xx_HAL_Driver/Inc/stm32f1xx_ll_gpio.h **** 
 274:Drivers/STM32F1xx_HAL_Driver/Inc/stm32f1xx_ll_gpio.h **** /**
 275:Drivers/STM32F1xx_HAL_Driver/Inc/stm32f1xx_ll_gpio.h ****   * @brief  Write a value in GPIO register
 276:Drivers/STM32F1xx_HAL_Driver/Inc/stm32f1xx_ll_gpio.h ****   * @param  __INSTANCE__ GPIO Instance
 277:Drivers/STM32F1xx_HAL_Driver/Inc/stm32f1xx_ll_gpio.h ****   * @param  __REG__ Register to be written
 278:Drivers/STM32F1xx_HAL_Driver/Inc/stm32f1xx_ll_gpio.h ****   * @param  __VALUE__ Value to be written in the register
 279:Drivers/STM32F1xx_HAL_Driver/Inc/stm32f1xx_ll_gpio.h ****   * @retval None
 280:Drivers/STM32F1xx_HAL_Driver/Inc/stm32f1xx_ll_gpio.h ****   */
 281:Drivers/STM32F1xx_HAL_Driver/Inc/stm32f1xx_ll_gpio.h **** #define LL_GPIO_WriteReg(__INSTANCE__, __REG__, __VALUE__) WRITE_REG(__INSTANCE__->__REG__, (__VALU
 282:Drivers/STM32F1xx_HAL_Driver/Inc/stm32f1xx_ll_gpio.h **** 
 283:Drivers/STM32F1xx_HAL_Driver/Inc/stm32f1xx_ll_gpio.h **** /**
 284:Drivers/STM32F1xx_HAL_Driver/Inc/stm32f1xx_ll_gpio.h ****   * @brief  Read a value in GPIO register
 285:Drivers/STM32F1xx_HAL_Driver/Inc/stm32f1xx_ll_gpio.h ****   * @param  __INSTANCE__ GPIO Instance
 286:Drivers/STM32F1xx_HAL_Driver/Inc/stm32f1xx_ll_gpio.h ****   * @param  __REG__ Register to be read
 287:Drivers/STM32F1xx_HAL_Driver/Inc/stm32f1xx_ll_gpio.h ****   * @retval Register value
 288:Drivers/STM32F1xx_HAL_Driver/Inc/stm32f1xx_ll_gpio.h ****   */
 289:Drivers/STM32F1xx_HAL_Driver/Inc/stm32f1xx_ll_gpio.h **** #define LL_GPIO_ReadReg(__INSTANCE__, __REG__) READ_REG(__INSTANCE__->__REG__)
 290:Drivers/STM32F1xx_HAL_Driver/Inc/stm32f1xx_ll_gpio.h **** /**
 291:Drivers/STM32F1xx_HAL_Driver/Inc/stm32f1xx_ll_gpio.h ****   * @}
 292:Drivers/STM32F1xx_HAL_Driver/Inc/stm32f1xx_ll_gpio.h ****   */
 293:Drivers/STM32F1xx_HAL_Driver/Inc/stm32f1xx_ll_gpio.h **** 
 294:Drivers/STM32F1xx_HAL_Driver/Inc/stm32f1xx_ll_gpio.h **** /**
 295:Drivers/STM32F1xx_HAL_Driver/Inc/stm32f1xx_ll_gpio.h ****   * @}
 296:Drivers/STM32F1xx_HAL_Driver/Inc/stm32f1xx_ll_gpio.h ****   */
 297:Drivers/STM32F1xx_HAL_Driver/Inc/stm32f1xx_ll_gpio.h **** 
 298:Drivers/STM32F1xx_HAL_Driver/Inc/stm32f1xx_ll_gpio.h **** /* Exported functions --------------------------------------------------------*/
 299:Drivers/STM32F1xx_HAL_Driver/Inc/stm32f1xx_ll_gpio.h **** /** @defgroup GPIO_LL_Exported_Functions GPIO Exported Functions
 300:Drivers/STM32F1xx_HAL_Driver/Inc/stm32f1xx_ll_gpio.h ****   * @{
 301:Drivers/STM32F1xx_HAL_Driver/Inc/stm32f1xx_ll_gpio.h ****   */
 302:Drivers/STM32F1xx_HAL_Driver/Inc/stm32f1xx_ll_gpio.h **** 
 303:Drivers/STM32F1xx_HAL_Driver/Inc/stm32f1xx_ll_gpio.h **** /** @defgroup GPIO_LL_EF_Port_Configuration Port Configuration
 304:Drivers/STM32F1xx_HAL_Driver/Inc/stm32f1xx_ll_gpio.h ****   * @{
 305:Drivers/STM32F1xx_HAL_Driver/Inc/stm32f1xx_ll_gpio.h ****   */
 306:Drivers/STM32F1xx_HAL_Driver/Inc/stm32f1xx_ll_gpio.h **** 
 307:Drivers/STM32F1xx_HAL_Driver/Inc/stm32f1xx_ll_gpio.h **** /**
 308:Drivers/STM32F1xx_HAL_Driver/Inc/stm32f1xx_ll_gpio.h ****   * @brief  Configure gpio mode for a dedicated pin on dedicated port.
 309:Drivers/STM32F1xx_HAL_Driver/Inc/stm32f1xx_ll_gpio.h ****   * @note   I/O mode can be Analog, Floating input, Input with pull-up/pull-down, General purpose O
 310:Drivers/STM32F1xx_HAL_Driver/Inc/stm32f1xx_ll_gpio.h ****   *         Alternate function Output.
 311:Drivers/STM32F1xx_HAL_Driver/Inc/stm32f1xx_ll_gpio.h ****   * @note   Warning: only one pin can be passed as parameter.
 312:Drivers/STM32F1xx_HAL_Driver/Inc/stm32f1xx_ll_gpio.h ****   * @rmtoll CRL        CNFy         LL_GPIO_SetPinMode
 313:Drivers/STM32F1xx_HAL_Driver/Inc/stm32f1xx_ll_gpio.h ****   * @rmtoll CRL        MODEy        LL_GPIO_SetPinMode
 314:Drivers/STM32F1xx_HAL_Driver/Inc/stm32f1xx_ll_gpio.h ****   * @rmtoll CRH        CNFy         LL_GPIO_SetPinMode
 315:Drivers/STM32F1xx_HAL_Driver/Inc/stm32f1xx_ll_gpio.h ****   * @rmtoll CRH        MODEy        LL_GPIO_SetPinMode
 316:Drivers/STM32F1xx_HAL_Driver/Inc/stm32f1xx_ll_gpio.h ****   * @param  GPIOx GPIO Port
 317:Drivers/STM32F1xx_HAL_Driver/Inc/stm32f1xx_ll_gpio.h ****   * @param  Pin This parameter can be one of the following values:
 318:Drivers/STM32F1xx_HAL_Driver/Inc/stm32f1xx_ll_gpio.h ****   *         @arg @ref LL_GPIO_PIN_0
 319:Drivers/STM32F1xx_HAL_Driver/Inc/stm32f1xx_ll_gpio.h ****   *         @arg @ref LL_GPIO_PIN_1
 320:Drivers/STM32F1xx_HAL_Driver/Inc/stm32f1xx_ll_gpio.h ****   *         @arg @ref LL_GPIO_PIN_2
ARM GAS  C:\Users\YUEJIN~1\AppData\Local\Temp\ccpkfgFJ.s 			page 8


 321:Drivers/STM32F1xx_HAL_Driver/Inc/stm32f1xx_ll_gpio.h ****   *         @arg @ref LL_GPIO_PIN_3
 322:Drivers/STM32F1xx_HAL_Driver/Inc/stm32f1xx_ll_gpio.h ****   *         @arg @ref LL_GPIO_PIN_4
 323:Drivers/STM32F1xx_HAL_Driver/Inc/stm32f1xx_ll_gpio.h ****   *         @arg @ref LL_GPIO_PIN_5
 324:Drivers/STM32F1xx_HAL_Driver/Inc/stm32f1xx_ll_gpio.h ****   *         @arg @ref LL_GPIO_PIN_6
 325:Drivers/STM32F1xx_HAL_Driver/Inc/stm32f1xx_ll_gpio.h ****   *         @arg @ref LL_GPIO_PIN_7
 326:Drivers/STM32F1xx_HAL_Driver/Inc/stm32f1xx_ll_gpio.h ****   *         @arg @ref LL_GPIO_PIN_8
 327:Drivers/STM32F1xx_HAL_Driver/Inc/stm32f1xx_ll_gpio.h ****   *         @arg @ref LL_GPIO_PIN_9
 328:Drivers/STM32F1xx_HAL_Driver/Inc/stm32f1xx_ll_gpio.h ****   *         @arg @ref LL_GPIO_PIN_10
 329:Drivers/STM32F1xx_HAL_Driver/Inc/stm32f1xx_ll_gpio.h ****   *         @arg @ref LL_GPIO_PIN_11
 330:Drivers/STM32F1xx_HAL_Driver/Inc/stm32f1xx_ll_gpio.h ****   *         @arg @ref LL_GPIO_PIN_12
 331:Drivers/STM32F1xx_HAL_Driver/Inc/stm32f1xx_ll_gpio.h ****   *         @arg @ref LL_GPIO_PIN_13
 332:Drivers/STM32F1xx_HAL_Driver/Inc/stm32f1xx_ll_gpio.h ****   *         @arg @ref LL_GPIO_PIN_14
 333:Drivers/STM32F1xx_HAL_Driver/Inc/stm32f1xx_ll_gpio.h ****   *         @arg @ref LL_GPIO_PIN_15
 334:Drivers/STM32F1xx_HAL_Driver/Inc/stm32f1xx_ll_gpio.h ****   * @param  Mode This parameter can be one of the following values:
 335:Drivers/STM32F1xx_HAL_Driver/Inc/stm32f1xx_ll_gpio.h ****   *         @arg @ref LL_GPIO_MODE_ANALOG
 336:Drivers/STM32F1xx_HAL_Driver/Inc/stm32f1xx_ll_gpio.h ****   *         @arg @ref LL_GPIO_MODE_FLOATING
 337:Drivers/STM32F1xx_HAL_Driver/Inc/stm32f1xx_ll_gpio.h ****   *         @arg @ref LL_GPIO_MODE_INPUT
 338:Drivers/STM32F1xx_HAL_Driver/Inc/stm32f1xx_ll_gpio.h ****   *         @arg @ref LL_GPIO_MODE_OUTPUT
 339:Drivers/STM32F1xx_HAL_Driver/Inc/stm32f1xx_ll_gpio.h ****   *         @arg @ref LL_GPIO_MODE_ALTERNATE
 340:Drivers/STM32F1xx_HAL_Driver/Inc/stm32f1xx_ll_gpio.h ****   * @retval None
 341:Drivers/STM32F1xx_HAL_Driver/Inc/stm32f1xx_ll_gpio.h ****   */
 342:Drivers/STM32F1xx_HAL_Driver/Inc/stm32f1xx_ll_gpio.h **** __STATIC_INLINE void LL_GPIO_SetPinMode(GPIO_TypeDef *GPIOx, uint32_t Pin, uint32_t Mode)
 343:Drivers/STM32F1xx_HAL_Driver/Inc/stm32f1xx_ll_gpio.h **** {
 344:Drivers/STM32F1xx_HAL_Driver/Inc/stm32f1xx_ll_gpio.h ****   register uint32_t *pReg = (uint32_t *)((uint32_t)((uint32_t)(&GPIOx->CRL) + (Pin >> 24)));
 345:Drivers/STM32F1xx_HAL_Driver/Inc/stm32f1xx_ll_gpio.h ****   MODIFY_REG(*pReg, ((GPIO_CRL_CNF0 | GPIO_CRL_MODE0) << (POSITION_VAL(Pin) * 4U)), (Mode << (POSIT
 346:Drivers/STM32F1xx_HAL_Driver/Inc/stm32f1xx_ll_gpio.h **** }
 347:Drivers/STM32F1xx_HAL_Driver/Inc/stm32f1xx_ll_gpio.h **** 
 348:Drivers/STM32F1xx_HAL_Driver/Inc/stm32f1xx_ll_gpio.h **** /**
 349:Drivers/STM32F1xx_HAL_Driver/Inc/stm32f1xx_ll_gpio.h ****   * @brief  Return gpio mode for a dedicated pin on dedicated port.
 350:Drivers/STM32F1xx_HAL_Driver/Inc/stm32f1xx_ll_gpio.h ****   * @note   I/O mode can be Analog, Floating input, Input with pull-up/pull-down, General purpose O
 351:Drivers/STM32F1xx_HAL_Driver/Inc/stm32f1xx_ll_gpio.h ****   *         Alternate function Output.
 352:Drivers/STM32F1xx_HAL_Driver/Inc/stm32f1xx_ll_gpio.h ****   * @note   Warning: only one pin can be passed as parameter.
 353:Drivers/STM32F1xx_HAL_Driver/Inc/stm32f1xx_ll_gpio.h ****   * @rmtoll CRL        CNFy         LL_GPIO_GetPinMode
 354:Drivers/STM32F1xx_HAL_Driver/Inc/stm32f1xx_ll_gpio.h ****   * @rmtoll CRL        MODEy        LL_GPIO_GetPinMode
 355:Drivers/STM32F1xx_HAL_Driver/Inc/stm32f1xx_ll_gpio.h ****   * @rmtoll CRH        CNFy         LL_GPIO_GetPinMode
 356:Drivers/STM32F1xx_HAL_Driver/Inc/stm32f1xx_ll_gpio.h ****   * @rmtoll CRH        MODEy        LL_GPIO_GetPinMode
 357:Drivers/STM32F1xx_HAL_Driver/Inc/stm32f1xx_ll_gpio.h ****   * @param  GPIOx GPIO Port
 358:Drivers/STM32F1xx_HAL_Driver/Inc/stm32f1xx_ll_gpio.h ****   * @param  Pin This parameter can be one of the following values:
 359:Drivers/STM32F1xx_HAL_Driver/Inc/stm32f1xx_ll_gpio.h ****   *         @arg @ref LL_GPIO_PIN_0
 360:Drivers/STM32F1xx_HAL_Driver/Inc/stm32f1xx_ll_gpio.h ****   *         @arg @ref LL_GPIO_PIN_1
 361:Drivers/STM32F1xx_HAL_Driver/Inc/stm32f1xx_ll_gpio.h ****   *         @arg @ref LL_GPIO_PIN_2
 362:Drivers/STM32F1xx_HAL_Driver/Inc/stm32f1xx_ll_gpio.h ****   *         @arg @ref LL_GPIO_PIN_3
 363:Drivers/STM32F1xx_HAL_Driver/Inc/stm32f1xx_ll_gpio.h ****   *         @arg @ref LL_GPIO_PIN_4
 364:Drivers/STM32F1xx_HAL_Driver/Inc/stm32f1xx_ll_gpio.h ****   *         @arg @ref LL_GPIO_PIN_5
 365:Drivers/STM32F1xx_HAL_Driver/Inc/stm32f1xx_ll_gpio.h ****   *         @arg @ref LL_GPIO_PIN_6
 366:Drivers/STM32F1xx_HAL_Driver/Inc/stm32f1xx_ll_gpio.h ****   *         @arg @ref LL_GPIO_PIN_7
 367:Drivers/STM32F1xx_HAL_Driver/Inc/stm32f1xx_ll_gpio.h ****   *         @arg @ref LL_GPIO_PIN_8
 368:Drivers/STM32F1xx_HAL_Driver/Inc/stm32f1xx_ll_gpio.h ****   *         @arg @ref LL_GPIO_PIN_9
 369:Drivers/STM32F1xx_HAL_Driver/Inc/stm32f1xx_ll_gpio.h ****   *         @arg @ref LL_GPIO_PIN_10
 370:Drivers/STM32F1xx_HAL_Driver/Inc/stm32f1xx_ll_gpio.h ****   *         @arg @ref LL_GPIO_PIN_11
 371:Drivers/STM32F1xx_HAL_Driver/Inc/stm32f1xx_ll_gpio.h ****   *         @arg @ref LL_GPIO_PIN_12
 372:Drivers/STM32F1xx_HAL_Driver/Inc/stm32f1xx_ll_gpio.h ****   *         @arg @ref LL_GPIO_PIN_13
 373:Drivers/STM32F1xx_HAL_Driver/Inc/stm32f1xx_ll_gpio.h ****   *         @arg @ref LL_GPIO_PIN_14
 374:Drivers/STM32F1xx_HAL_Driver/Inc/stm32f1xx_ll_gpio.h ****   *         @arg @ref LL_GPIO_PIN_15
 375:Drivers/STM32F1xx_HAL_Driver/Inc/stm32f1xx_ll_gpio.h ****   * @retval Returned value can be one of the following values:
 376:Drivers/STM32F1xx_HAL_Driver/Inc/stm32f1xx_ll_gpio.h ****   *         @arg @ref LL_GPIO_MODE_ANALOG
 377:Drivers/STM32F1xx_HAL_Driver/Inc/stm32f1xx_ll_gpio.h ****   *         @arg @ref LL_GPIO_MODE_FLOATING
ARM GAS  C:\Users\YUEJIN~1\AppData\Local\Temp\ccpkfgFJ.s 			page 9


 378:Drivers/STM32F1xx_HAL_Driver/Inc/stm32f1xx_ll_gpio.h ****   *         @arg @ref LL_GPIO_MODE_INPUT
 379:Drivers/STM32F1xx_HAL_Driver/Inc/stm32f1xx_ll_gpio.h ****   *         @arg @ref LL_GPIO_MODE_OUTPUT
 380:Drivers/STM32F1xx_HAL_Driver/Inc/stm32f1xx_ll_gpio.h ****   *         @arg @ref LL_GPIO_MODE_ALTERNATE
 381:Drivers/STM32F1xx_HAL_Driver/Inc/stm32f1xx_ll_gpio.h ****   */
 382:Drivers/STM32F1xx_HAL_Driver/Inc/stm32f1xx_ll_gpio.h **** __STATIC_INLINE uint32_t LL_GPIO_GetPinMode(GPIO_TypeDef *GPIOx, uint32_t Pin)
 383:Drivers/STM32F1xx_HAL_Driver/Inc/stm32f1xx_ll_gpio.h **** {
 384:Drivers/STM32F1xx_HAL_Driver/Inc/stm32f1xx_ll_gpio.h ****   register uint32_t *pReg = (uint32_t *)((uint32_t)((uint32_t)(&GPIOx->CRL) + (Pin >> 24)));
 385:Drivers/STM32F1xx_HAL_Driver/Inc/stm32f1xx_ll_gpio.h ****   return (READ_BIT(*pReg, ((GPIO_CRL_CNF0 | GPIO_CRL_MODE0) << (POSITION_VAL(Pin) * 4U))) >> (POSIT
 386:Drivers/STM32F1xx_HAL_Driver/Inc/stm32f1xx_ll_gpio.h **** }
 387:Drivers/STM32F1xx_HAL_Driver/Inc/stm32f1xx_ll_gpio.h **** 
 388:Drivers/STM32F1xx_HAL_Driver/Inc/stm32f1xx_ll_gpio.h **** /**
 389:Drivers/STM32F1xx_HAL_Driver/Inc/stm32f1xx_ll_gpio.h ****   * @brief  Configure gpio speed for a dedicated pin on dedicated port.
 390:Drivers/STM32F1xx_HAL_Driver/Inc/stm32f1xx_ll_gpio.h ****   * @note   I/O speed can be Low, Medium or Fast speed.
 391:Drivers/STM32F1xx_HAL_Driver/Inc/stm32f1xx_ll_gpio.h ****   * @note   Warning: only one pin can be passed as parameter.
 392:Drivers/STM32F1xx_HAL_Driver/Inc/stm32f1xx_ll_gpio.h ****   * @note   Refer to datasheet for frequency specifications and the power
 393:Drivers/STM32F1xx_HAL_Driver/Inc/stm32f1xx_ll_gpio.h ****   *         supply and load conditions for each speed.
 394:Drivers/STM32F1xx_HAL_Driver/Inc/stm32f1xx_ll_gpio.h ****   * @rmtoll CRL      MODEy       LL_GPIO_SetPinSpeed
 395:Drivers/STM32F1xx_HAL_Driver/Inc/stm32f1xx_ll_gpio.h ****   * @rmtoll CRH      MODEy       LL_GPIO_SetPinSpeed
 396:Drivers/STM32F1xx_HAL_Driver/Inc/stm32f1xx_ll_gpio.h ****   * @param  GPIOx GPIO Port
 397:Drivers/STM32F1xx_HAL_Driver/Inc/stm32f1xx_ll_gpio.h ****   * @param  Pin This parameter can be one of the following values:
 398:Drivers/STM32F1xx_HAL_Driver/Inc/stm32f1xx_ll_gpio.h ****   *         @arg @ref LL_GPIO_PIN_0
 399:Drivers/STM32F1xx_HAL_Driver/Inc/stm32f1xx_ll_gpio.h ****   *         @arg @ref LL_GPIO_PIN_1
 400:Drivers/STM32F1xx_HAL_Driver/Inc/stm32f1xx_ll_gpio.h ****   *         @arg @ref LL_GPIO_PIN_2
 401:Drivers/STM32F1xx_HAL_Driver/Inc/stm32f1xx_ll_gpio.h ****   *         @arg @ref LL_GPIO_PIN_3
 402:Drivers/STM32F1xx_HAL_Driver/Inc/stm32f1xx_ll_gpio.h ****   *         @arg @ref LL_GPIO_PIN_4
 403:Drivers/STM32F1xx_HAL_Driver/Inc/stm32f1xx_ll_gpio.h ****   *         @arg @ref LL_GPIO_PIN_5
 404:Drivers/STM32F1xx_HAL_Driver/Inc/stm32f1xx_ll_gpio.h ****   *         @arg @ref LL_GPIO_PIN_6
 405:Drivers/STM32F1xx_HAL_Driver/Inc/stm32f1xx_ll_gpio.h ****   *         @arg @ref LL_GPIO_PIN_7
 406:Drivers/STM32F1xx_HAL_Driver/Inc/stm32f1xx_ll_gpio.h ****   *         @arg @ref LL_GPIO_PIN_8
 407:Drivers/STM32F1xx_HAL_Driver/Inc/stm32f1xx_ll_gpio.h ****   *         @arg @ref LL_GPIO_PIN_9
 408:Drivers/STM32F1xx_HAL_Driver/Inc/stm32f1xx_ll_gpio.h ****   *         @arg @ref LL_GPIO_PIN_10
 409:Drivers/STM32F1xx_HAL_Driver/Inc/stm32f1xx_ll_gpio.h ****   *         @arg @ref LL_GPIO_PIN_11
 410:Drivers/STM32F1xx_HAL_Driver/Inc/stm32f1xx_ll_gpio.h ****   *         @arg @ref LL_GPIO_PIN_12
 411:Drivers/STM32F1xx_HAL_Driver/Inc/stm32f1xx_ll_gpio.h ****   *         @arg @ref LL_GPIO_PIN_13
 412:Drivers/STM32F1xx_HAL_Driver/Inc/stm32f1xx_ll_gpio.h ****   *         @arg @ref LL_GPIO_PIN_14
 413:Drivers/STM32F1xx_HAL_Driver/Inc/stm32f1xx_ll_gpio.h ****   *         @arg @ref LL_GPIO_PIN_15
 414:Drivers/STM32F1xx_HAL_Driver/Inc/stm32f1xx_ll_gpio.h ****   * @param  Speed This parameter can be one of the following values:
 415:Drivers/STM32F1xx_HAL_Driver/Inc/stm32f1xx_ll_gpio.h ****   *         @arg @ref LL_GPIO_SPEED_FREQ_LOW
 416:Drivers/STM32F1xx_HAL_Driver/Inc/stm32f1xx_ll_gpio.h ****   *         @arg @ref LL_GPIO_SPEED_FREQ_MEDIUM
 417:Drivers/STM32F1xx_HAL_Driver/Inc/stm32f1xx_ll_gpio.h ****   *         @arg @ref LL_GPIO_SPEED_FREQ_HIGH
 418:Drivers/STM32F1xx_HAL_Driver/Inc/stm32f1xx_ll_gpio.h ****   * @retval None
 419:Drivers/STM32F1xx_HAL_Driver/Inc/stm32f1xx_ll_gpio.h ****   */
 420:Drivers/STM32F1xx_HAL_Driver/Inc/stm32f1xx_ll_gpio.h **** __STATIC_INLINE void LL_GPIO_SetPinSpeed(GPIO_TypeDef *GPIOx, uint32_t Pin, uint32_t  Speed)
 421:Drivers/STM32F1xx_HAL_Driver/Inc/stm32f1xx_ll_gpio.h **** {
 422:Drivers/STM32F1xx_HAL_Driver/Inc/stm32f1xx_ll_gpio.h ****   register uint32_t *pReg = (uint32_t *)((uint32_t)((uint32_t)(&GPIOx->CRL) + (Pin >> 24)));
 423:Drivers/STM32F1xx_HAL_Driver/Inc/stm32f1xx_ll_gpio.h ****   MODIFY_REG(*pReg, (GPIO_CRL_MODE0 << (POSITION_VAL(Pin) * 4U)),
 424:Drivers/STM32F1xx_HAL_Driver/Inc/stm32f1xx_ll_gpio.h ****              (Speed << (POSITION_VAL(Pin) * 4U)));
 425:Drivers/STM32F1xx_HAL_Driver/Inc/stm32f1xx_ll_gpio.h **** }
 426:Drivers/STM32F1xx_HAL_Driver/Inc/stm32f1xx_ll_gpio.h **** 
 427:Drivers/STM32F1xx_HAL_Driver/Inc/stm32f1xx_ll_gpio.h **** /**
 428:Drivers/STM32F1xx_HAL_Driver/Inc/stm32f1xx_ll_gpio.h ****   * @brief  Return gpio speed for a dedicated pin on dedicated port.
 429:Drivers/STM32F1xx_HAL_Driver/Inc/stm32f1xx_ll_gpio.h ****   * @note   I/O speed can be Low, Medium, Fast or High speed.
 430:Drivers/STM32F1xx_HAL_Driver/Inc/stm32f1xx_ll_gpio.h ****   * @note   Warning: only one pin can be passed as parameter.
 431:Drivers/STM32F1xx_HAL_Driver/Inc/stm32f1xx_ll_gpio.h ****   * @note   Refer to datasheet for frequency specifications and the power
 432:Drivers/STM32F1xx_HAL_Driver/Inc/stm32f1xx_ll_gpio.h ****   *         supply and load conditions for each speed.
 433:Drivers/STM32F1xx_HAL_Driver/Inc/stm32f1xx_ll_gpio.h ****   * @rmtoll CRL      MODEy       LL_GPIO_GetPinSpeed
 434:Drivers/STM32F1xx_HAL_Driver/Inc/stm32f1xx_ll_gpio.h ****   * @rmtoll CRH      MODEy       LL_GPIO_GetPinSpeed
ARM GAS  C:\Users\YUEJIN~1\AppData\Local\Temp\ccpkfgFJ.s 			page 10


 435:Drivers/STM32F1xx_HAL_Driver/Inc/stm32f1xx_ll_gpio.h ****   * @param  GPIOx GPIO Port
 436:Drivers/STM32F1xx_HAL_Driver/Inc/stm32f1xx_ll_gpio.h ****   * @param  Pin This parameter can be one of the following values:
 437:Drivers/STM32F1xx_HAL_Driver/Inc/stm32f1xx_ll_gpio.h ****   *         @arg @ref LL_GPIO_PIN_0
 438:Drivers/STM32F1xx_HAL_Driver/Inc/stm32f1xx_ll_gpio.h ****   *         @arg @ref LL_GPIO_PIN_1
 439:Drivers/STM32F1xx_HAL_Driver/Inc/stm32f1xx_ll_gpio.h ****   *         @arg @ref LL_GPIO_PIN_2
 440:Drivers/STM32F1xx_HAL_Driver/Inc/stm32f1xx_ll_gpio.h ****   *         @arg @ref LL_GPIO_PIN_3
 441:Drivers/STM32F1xx_HAL_Driver/Inc/stm32f1xx_ll_gpio.h ****   *         @arg @ref LL_GPIO_PIN_4
 442:Drivers/STM32F1xx_HAL_Driver/Inc/stm32f1xx_ll_gpio.h ****   *         @arg @ref LL_GPIO_PIN_5
 443:Drivers/STM32F1xx_HAL_Driver/Inc/stm32f1xx_ll_gpio.h ****   *         @arg @ref LL_GPIO_PIN_6
 444:Drivers/STM32F1xx_HAL_Driver/Inc/stm32f1xx_ll_gpio.h ****   *         @arg @ref LL_GPIO_PIN_7
 445:Drivers/STM32F1xx_HAL_Driver/Inc/stm32f1xx_ll_gpio.h ****   *         @arg @ref LL_GPIO_PIN_8
 446:Drivers/STM32F1xx_HAL_Driver/Inc/stm32f1xx_ll_gpio.h ****   *         @arg @ref LL_GPIO_PIN_9
 447:Drivers/STM32F1xx_HAL_Driver/Inc/stm32f1xx_ll_gpio.h ****   *         @arg @ref LL_GPIO_PIN_10
 448:Drivers/STM32F1xx_HAL_Driver/Inc/stm32f1xx_ll_gpio.h ****   *         @arg @ref LL_GPIO_PIN_11
 449:Drivers/STM32F1xx_HAL_Driver/Inc/stm32f1xx_ll_gpio.h ****   *         @arg @ref LL_GPIO_PIN_12
 450:Drivers/STM32F1xx_HAL_Driver/Inc/stm32f1xx_ll_gpio.h ****   *         @arg @ref LL_GPIO_PIN_13
 451:Drivers/STM32F1xx_HAL_Driver/Inc/stm32f1xx_ll_gpio.h ****   *         @arg @ref LL_GPIO_PIN_14
 452:Drivers/STM32F1xx_HAL_Driver/Inc/stm32f1xx_ll_gpio.h ****   *         @arg @ref LL_GPIO_PIN_15
 453:Drivers/STM32F1xx_HAL_Driver/Inc/stm32f1xx_ll_gpio.h ****   * @retval Returned value can be one of the following values:
 454:Drivers/STM32F1xx_HAL_Driver/Inc/stm32f1xx_ll_gpio.h ****   *         @arg @ref LL_GPIO_SPEED_FREQ_LOW
 455:Drivers/STM32F1xx_HAL_Driver/Inc/stm32f1xx_ll_gpio.h ****   *         @arg @ref LL_GPIO_SPEED_FREQ_MEDIUM
 456:Drivers/STM32F1xx_HAL_Driver/Inc/stm32f1xx_ll_gpio.h ****   *         @arg @ref LL_GPIO_SPEED_FREQ_HIGH
 457:Drivers/STM32F1xx_HAL_Driver/Inc/stm32f1xx_ll_gpio.h ****   */
 458:Drivers/STM32F1xx_HAL_Driver/Inc/stm32f1xx_ll_gpio.h **** __STATIC_INLINE uint32_t LL_GPIO_GetPinSpeed(GPIO_TypeDef *GPIOx, uint32_t Pin)
 459:Drivers/STM32F1xx_HAL_Driver/Inc/stm32f1xx_ll_gpio.h **** {
 460:Drivers/STM32F1xx_HAL_Driver/Inc/stm32f1xx_ll_gpio.h ****   register uint32_t *pReg = (uint32_t *)((uint32_t)((uint32_t)(&GPIOx->CRL) + (Pin >> 24)));
 461:Drivers/STM32F1xx_HAL_Driver/Inc/stm32f1xx_ll_gpio.h ****   return (READ_BIT(*pReg, (GPIO_CRL_MODE0 << (POSITION_VAL(Pin) * 4U))) >> (POSITION_VAL(Pin) * 4U)
 462:Drivers/STM32F1xx_HAL_Driver/Inc/stm32f1xx_ll_gpio.h **** }
 463:Drivers/STM32F1xx_HAL_Driver/Inc/stm32f1xx_ll_gpio.h **** 
 464:Drivers/STM32F1xx_HAL_Driver/Inc/stm32f1xx_ll_gpio.h **** /**
 465:Drivers/STM32F1xx_HAL_Driver/Inc/stm32f1xx_ll_gpio.h ****   * @brief  Configure gpio output type for several pins on dedicated port.
 466:Drivers/STM32F1xx_HAL_Driver/Inc/stm32f1xx_ll_gpio.h ****   * @note   Output type as to be set when gpio pin is in output or
 467:Drivers/STM32F1xx_HAL_Driver/Inc/stm32f1xx_ll_gpio.h ****   *         alternate modes. Possible type are Push-pull or Open-drain.
 468:Drivers/STM32F1xx_HAL_Driver/Inc/stm32f1xx_ll_gpio.h ****   * @rmtoll CRL       MODEy           LL_GPIO_SetPinOutputType
 469:Drivers/STM32F1xx_HAL_Driver/Inc/stm32f1xx_ll_gpio.h ****   * @rmtoll CRH       MODEy           LL_GPIO_SetPinOutputType
 470:Drivers/STM32F1xx_HAL_Driver/Inc/stm32f1xx_ll_gpio.h ****   * @param  GPIOx GPIO Port
 471:Drivers/STM32F1xx_HAL_Driver/Inc/stm32f1xx_ll_gpio.h ****   * @param  Pin This parameter can be a combination of the following values:
 472:Drivers/STM32F1xx_HAL_Driver/Inc/stm32f1xx_ll_gpio.h ****   *         @arg @ref LL_GPIO_PIN_0
 473:Drivers/STM32F1xx_HAL_Driver/Inc/stm32f1xx_ll_gpio.h ****   *         @arg @ref LL_GPIO_PIN_1
 474:Drivers/STM32F1xx_HAL_Driver/Inc/stm32f1xx_ll_gpio.h ****   *         @arg @ref LL_GPIO_PIN_2
 475:Drivers/STM32F1xx_HAL_Driver/Inc/stm32f1xx_ll_gpio.h ****   *         @arg @ref LL_GPIO_PIN_3
 476:Drivers/STM32F1xx_HAL_Driver/Inc/stm32f1xx_ll_gpio.h ****   *         @arg @ref LL_GPIO_PIN_4
 477:Drivers/STM32F1xx_HAL_Driver/Inc/stm32f1xx_ll_gpio.h ****   *         @arg @ref LL_GPIO_PIN_5
 478:Drivers/STM32F1xx_HAL_Driver/Inc/stm32f1xx_ll_gpio.h ****   *         @arg @ref LL_GPIO_PIN_6
 479:Drivers/STM32F1xx_HAL_Driver/Inc/stm32f1xx_ll_gpio.h ****   *         @arg @ref LL_GPIO_PIN_7
 480:Drivers/STM32F1xx_HAL_Driver/Inc/stm32f1xx_ll_gpio.h ****   *         @arg @ref LL_GPIO_PIN_8
 481:Drivers/STM32F1xx_HAL_Driver/Inc/stm32f1xx_ll_gpio.h ****   *         @arg @ref LL_GPIO_PIN_9
 482:Drivers/STM32F1xx_HAL_Driver/Inc/stm32f1xx_ll_gpio.h ****   *         @arg @ref LL_GPIO_PIN_10
 483:Drivers/STM32F1xx_HAL_Driver/Inc/stm32f1xx_ll_gpio.h ****   *         @arg @ref LL_GPIO_PIN_11
 484:Drivers/STM32F1xx_HAL_Driver/Inc/stm32f1xx_ll_gpio.h ****   *         @arg @ref LL_GPIO_PIN_12
 485:Drivers/STM32F1xx_HAL_Driver/Inc/stm32f1xx_ll_gpio.h ****   *         @arg @ref LL_GPIO_PIN_13
 486:Drivers/STM32F1xx_HAL_Driver/Inc/stm32f1xx_ll_gpio.h ****   *         @arg @ref LL_GPIO_PIN_14
 487:Drivers/STM32F1xx_HAL_Driver/Inc/stm32f1xx_ll_gpio.h ****   *         @arg @ref LL_GPIO_PIN_15
 488:Drivers/STM32F1xx_HAL_Driver/Inc/stm32f1xx_ll_gpio.h ****   *         @arg @ref LL_GPIO_PIN_ALL
 489:Drivers/STM32F1xx_HAL_Driver/Inc/stm32f1xx_ll_gpio.h ****   * @param  OutputType This parameter can be one of the following values:
 490:Drivers/STM32F1xx_HAL_Driver/Inc/stm32f1xx_ll_gpio.h ****   *         @arg @ref LL_GPIO_OUTPUT_PUSHPULL
 491:Drivers/STM32F1xx_HAL_Driver/Inc/stm32f1xx_ll_gpio.h ****   *         @arg @ref LL_GPIO_OUTPUT_OPENDRAIN
ARM GAS  C:\Users\YUEJIN~1\AppData\Local\Temp\ccpkfgFJ.s 			page 11


 492:Drivers/STM32F1xx_HAL_Driver/Inc/stm32f1xx_ll_gpio.h ****   * @retval None
 493:Drivers/STM32F1xx_HAL_Driver/Inc/stm32f1xx_ll_gpio.h ****   */
 494:Drivers/STM32F1xx_HAL_Driver/Inc/stm32f1xx_ll_gpio.h **** __STATIC_INLINE void LL_GPIO_SetPinOutputType(GPIO_TypeDef *GPIOx, uint32_t Pin, uint32_t OutputTyp
 495:Drivers/STM32F1xx_HAL_Driver/Inc/stm32f1xx_ll_gpio.h **** {
 496:Drivers/STM32F1xx_HAL_Driver/Inc/stm32f1xx_ll_gpio.h ****   register uint32_t *pReg = (uint32_t *)((uint32_t)((uint32_t)(&GPIOx->CRL) + (Pin >> 24)));
 497:Drivers/STM32F1xx_HAL_Driver/Inc/stm32f1xx_ll_gpio.h ****   MODIFY_REG(*pReg, (GPIO_CRL_CNF0_0 << (POSITION_VAL(Pin) * 4U)),
 498:Drivers/STM32F1xx_HAL_Driver/Inc/stm32f1xx_ll_gpio.h ****              (OutputType << (POSITION_VAL(Pin) * 4U)));
 499:Drivers/STM32F1xx_HAL_Driver/Inc/stm32f1xx_ll_gpio.h **** }
 500:Drivers/STM32F1xx_HAL_Driver/Inc/stm32f1xx_ll_gpio.h **** 
 501:Drivers/STM32F1xx_HAL_Driver/Inc/stm32f1xx_ll_gpio.h **** /**
 502:Drivers/STM32F1xx_HAL_Driver/Inc/stm32f1xx_ll_gpio.h ****   * @brief  Return gpio output type for several pins on dedicated port.
 503:Drivers/STM32F1xx_HAL_Driver/Inc/stm32f1xx_ll_gpio.h ****   * @note   Output type as to be set when gpio pin is in output or
 504:Drivers/STM32F1xx_HAL_Driver/Inc/stm32f1xx_ll_gpio.h ****   *         alternate modes. Possible type are Push-pull or Open-drain.
 505:Drivers/STM32F1xx_HAL_Driver/Inc/stm32f1xx_ll_gpio.h ****   * @note   Warning: only one pin can be passed as parameter.
 506:Drivers/STM32F1xx_HAL_Driver/Inc/stm32f1xx_ll_gpio.h ****   * @rmtoll CRL       MODEy       LL_GPIO_GetPinOutputType
 507:Drivers/STM32F1xx_HAL_Driver/Inc/stm32f1xx_ll_gpio.h ****   * @rmtoll CRH       MODEy       LL_GPIO_GetPinOutputType
 508:Drivers/STM32F1xx_HAL_Driver/Inc/stm32f1xx_ll_gpio.h ****   * @param  GPIOx GPIO Port
 509:Drivers/STM32F1xx_HAL_Driver/Inc/stm32f1xx_ll_gpio.h ****   * @param  Pin This parameter can be one of the following values:
 510:Drivers/STM32F1xx_HAL_Driver/Inc/stm32f1xx_ll_gpio.h ****   *         @arg @ref LL_GPIO_PIN_0
 511:Drivers/STM32F1xx_HAL_Driver/Inc/stm32f1xx_ll_gpio.h ****   *         @arg @ref LL_GPIO_PIN_1
 512:Drivers/STM32F1xx_HAL_Driver/Inc/stm32f1xx_ll_gpio.h ****   *         @arg @ref LL_GPIO_PIN_2
 513:Drivers/STM32F1xx_HAL_Driver/Inc/stm32f1xx_ll_gpio.h ****   *         @arg @ref LL_GPIO_PIN_3
 514:Drivers/STM32F1xx_HAL_Driver/Inc/stm32f1xx_ll_gpio.h ****   *         @arg @ref LL_GPIO_PIN_4
 515:Drivers/STM32F1xx_HAL_Driver/Inc/stm32f1xx_ll_gpio.h ****   *         @arg @ref LL_GPIO_PIN_5
 516:Drivers/STM32F1xx_HAL_Driver/Inc/stm32f1xx_ll_gpio.h ****   *         @arg @ref LL_GPIO_PIN_6
 517:Drivers/STM32F1xx_HAL_Driver/Inc/stm32f1xx_ll_gpio.h ****   *         @arg @ref LL_GPIO_PIN_7
 518:Drivers/STM32F1xx_HAL_Driver/Inc/stm32f1xx_ll_gpio.h ****   *         @arg @ref LL_GPIO_PIN_8
 519:Drivers/STM32F1xx_HAL_Driver/Inc/stm32f1xx_ll_gpio.h ****   *         @arg @ref LL_GPIO_PIN_9
 520:Drivers/STM32F1xx_HAL_Driver/Inc/stm32f1xx_ll_gpio.h ****   *         @arg @ref LL_GPIO_PIN_10
 521:Drivers/STM32F1xx_HAL_Driver/Inc/stm32f1xx_ll_gpio.h ****   *         @arg @ref LL_GPIO_PIN_11
 522:Drivers/STM32F1xx_HAL_Driver/Inc/stm32f1xx_ll_gpio.h ****   *         @arg @ref LL_GPIO_PIN_12
 523:Drivers/STM32F1xx_HAL_Driver/Inc/stm32f1xx_ll_gpio.h ****   *         @arg @ref LL_GPIO_PIN_13
 524:Drivers/STM32F1xx_HAL_Driver/Inc/stm32f1xx_ll_gpio.h ****   *         @arg @ref LL_GPIO_PIN_14
 525:Drivers/STM32F1xx_HAL_Driver/Inc/stm32f1xx_ll_gpio.h ****   *         @arg @ref LL_GPIO_PIN_15
 526:Drivers/STM32F1xx_HAL_Driver/Inc/stm32f1xx_ll_gpio.h ****   *         @arg @ref LL_GPIO_PIN_ALL
 527:Drivers/STM32F1xx_HAL_Driver/Inc/stm32f1xx_ll_gpio.h ****   * @retval Returned value can be one of the following values:
 528:Drivers/STM32F1xx_HAL_Driver/Inc/stm32f1xx_ll_gpio.h ****   *         @arg @ref LL_GPIO_OUTPUT_PUSHPULL
 529:Drivers/STM32F1xx_HAL_Driver/Inc/stm32f1xx_ll_gpio.h ****   *         @arg @ref LL_GPIO_OUTPUT_OPENDRAIN
 530:Drivers/STM32F1xx_HAL_Driver/Inc/stm32f1xx_ll_gpio.h ****   */
 531:Drivers/STM32F1xx_HAL_Driver/Inc/stm32f1xx_ll_gpio.h **** __STATIC_INLINE uint32_t LL_GPIO_GetPinOutputType(GPIO_TypeDef *GPIOx, uint32_t Pin)
 532:Drivers/STM32F1xx_HAL_Driver/Inc/stm32f1xx_ll_gpio.h **** {
 533:Drivers/STM32F1xx_HAL_Driver/Inc/stm32f1xx_ll_gpio.h ****   register uint32_t *pReg = (uint32_t *)((uint32_t)((uint32_t)(&GPIOx->CRL) + (Pin >> 24)));
 534:Drivers/STM32F1xx_HAL_Driver/Inc/stm32f1xx_ll_gpio.h ****   return (READ_BIT(*pReg, (GPIO_CRL_CNF0_0 << (POSITION_VAL(Pin) * 4U))) >> (POSITION_VAL(Pin) * 4U
 535:Drivers/STM32F1xx_HAL_Driver/Inc/stm32f1xx_ll_gpio.h **** 
 536:Drivers/STM32F1xx_HAL_Driver/Inc/stm32f1xx_ll_gpio.h **** }
 537:Drivers/STM32F1xx_HAL_Driver/Inc/stm32f1xx_ll_gpio.h **** 
 538:Drivers/STM32F1xx_HAL_Driver/Inc/stm32f1xx_ll_gpio.h **** /**
 539:Drivers/STM32F1xx_HAL_Driver/Inc/stm32f1xx_ll_gpio.h ****   * @brief  Configure gpio pull-up or pull-down for a dedicated pin on a dedicated port.
 540:Drivers/STM32F1xx_HAL_Driver/Inc/stm32f1xx_ll_gpio.h ****   * @note   Warning: only one pin can be passed as parameter.
 541:Drivers/STM32F1xx_HAL_Driver/Inc/stm32f1xx_ll_gpio.h ****   * @rmtoll ODR        ODR         LL_GPIO_SetPinPull
 542:Drivers/STM32F1xx_HAL_Driver/Inc/stm32f1xx_ll_gpio.h ****   * @param  GPIOx GPIO Port
 543:Drivers/STM32F1xx_HAL_Driver/Inc/stm32f1xx_ll_gpio.h ****   * @param  Pin This parameter can be one of the following values:
 544:Drivers/STM32F1xx_HAL_Driver/Inc/stm32f1xx_ll_gpio.h ****   *         @arg @ref LL_GPIO_PIN_0
 545:Drivers/STM32F1xx_HAL_Driver/Inc/stm32f1xx_ll_gpio.h ****   *         @arg @ref LL_GPIO_PIN_1
 546:Drivers/STM32F1xx_HAL_Driver/Inc/stm32f1xx_ll_gpio.h ****   *         @arg @ref LL_GPIO_PIN_2
 547:Drivers/STM32F1xx_HAL_Driver/Inc/stm32f1xx_ll_gpio.h ****   *         @arg @ref LL_GPIO_PIN_3
 548:Drivers/STM32F1xx_HAL_Driver/Inc/stm32f1xx_ll_gpio.h ****   *         @arg @ref LL_GPIO_PIN_4
ARM GAS  C:\Users\YUEJIN~1\AppData\Local\Temp\ccpkfgFJ.s 			page 12


 549:Drivers/STM32F1xx_HAL_Driver/Inc/stm32f1xx_ll_gpio.h ****   *         @arg @ref LL_GPIO_PIN_5
 550:Drivers/STM32F1xx_HAL_Driver/Inc/stm32f1xx_ll_gpio.h ****   *         @arg @ref LL_GPIO_PIN_6
 551:Drivers/STM32F1xx_HAL_Driver/Inc/stm32f1xx_ll_gpio.h ****   *         @arg @ref LL_GPIO_PIN_7
 552:Drivers/STM32F1xx_HAL_Driver/Inc/stm32f1xx_ll_gpio.h ****   *         @arg @ref LL_GPIO_PIN_8
 553:Drivers/STM32F1xx_HAL_Driver/Inc/stm32f1xx_ll_gpio.h ****   *         @arg @ref LL_GPIO_PIN_9
 554:Drivers/STM32F1xx_HAL_Driver/Inc/stm32f1xx_ll_gpio.h ****   *         @arg @ref LL_GPIO_PIN_10
 555:Drivers/STM32F1xx_HAL_Driver/Inc/stm32f1xx_ll_gpio.h ****   *         @arg @ref LL_GPIO_PIN_11
 556:Drivers/STM32F1xx_HAL_Driver/Inc/stm32f1xx_ll_gpio.h ****   *         @arg @ref LL_GPIO_PIN_12
 557:Drivers/STM32F1xx_HAL_Driver/Inc/stm32f1xx_ll_gpio.h ****   *         @arg @ref LL_GPIO_PIN_13
 558:Drivers/STM32F1xx_HAL_Driver/Inc/stm32f1xx_ll_gpio.h ****   *         @arg @ref LL_GPIO_PIN_14
 559:Drivers/STM32F1xx_HAL_Driver/Inc/stm32f1xx_ll_gpio.h ****   *         @arg @ref LL_GPIO_PIN_15
 560:Drivers/STM32F1xx_HAL_Driver/Inc/stm32f1xx_ll_gpio.h ****   * @param  Pull This parameter can be one of the following values:
 561:Drivers/STM32F1xx_HAL_Driver/Inc/stm32f1xx_ll_gpio.h ****   *         @arg @ref LL_GPIO_PULL_DOWN
 562:Drivers/STM32F1xx_HAL_Driver/Inc/stm32f1xx_ll_gpio.h ****   *         @arg @ref LL_GPIO_PULL_UP
 563:Drivers/STM32F1xx_HAL_Driver/Inc/stm32f1xx_ll_gpio.h ****   * @retval None
 564:Drivers/STM32F1xx_HAL_Driver/Inc/stm32f1xx_ll_gpio.h ****   */
 565:Drivers/STM32F1xx_HAL_Driver/Inc/stm32f1xx_ll_gpio.h **** __STATIC_INLINE void LL_GPIO_SetPinPull(GPIO_TypeDef *GPIOx, uint32_t Pin, uint32_t Pull)
 566:Drivers/STM32F1xx_HAL_Driver/Inc/stm32f1xx_ll_gpio.h **** {
 567:Drivers/STM32F1xx_HAL_Driver/Inc/stm32f1xx_ll_gpio.h ****   MODIFY_REG(GPIOx->ODR, (Pin >> GPIO_PIN_MASK_POS), Pull << (POSITION_VAL(Pin >> GPIO_PIN_MASK_POS
 568:Drivers/STM32F1xx_HAL_Driver/Inc/stm32f1xx_ll_gpio.h **** }
 569:Drivers/STM32F1xx_HAL_Driver/Inc/stm32f1xx_ll_gpio.h **** 
 570:Drivers/STM32F1xx_HAL_Driver/Inc/stm32f1xx_ll_gpio.h **** /**
 571:Drivers/STM32F1xx_HAL_Driver/Inc/stm32f1xx_ll_gpio.h ****   * @brief  Return gpio pull-up or pull-down for a dedicated pin on a dedicated port
 572:Drivers/STM32F1xx_HAL_Driver/Inc/stm32f1xx_ll_gpio.h ****   * @note   Warning: only one pin can be passed as parameter.
 573:Drivers/STM32F1xx_HAL_Driver/Inc/stm32f1xx_ll_gpio.h ****   * @rmtoll ODR        ODR         LL_GPIO_GetPinPull
 574:Drivers/STM32F1xx_HAL_Driver/Inc/stm32f1xx_ll_gpio.h ****   * @param  GPIOx GPIO Port
 575:Drivers/STM32F1xx_HAL_Driver/Inc/stm32f1xx_ll_gpio.h ****   * @param  Pin This parameter can be one of the following values:
 576:Drivers/STM32F1xx_HAL_Driver/Inc/stm32f1xx_ll_gpio.h ****   *         @arg @ref LL_GPIO_PIN_0
 577:Drivers/STM32F1xx_HAL_Driver/Inc/stm32f1xx_ll_gpio.h ****   *         @arg @ref LL_GPIO_PIN_1
 578:Drivers/STM32F1xx_HAL_Driver/Inc/stm32f1xx_ll_gpio.h ****   *         @arg @ref LL_GPIO_PIN_2
 579:Drivers/STM32F1xx_HAL_Driver/Inc/stm32f1xx_ll_gpio.h ****   *         @arg @ref LL_GPIO_PIN_3
 580:Drivers/STM32F1xx_HAL_Driver/Inc/stm32f1xx_ll_gpio.h ****   *         @arg @ref LL_GPIO_PIN_4
 581:Drivers/STM32F1xx_HAL_Driver/Inc/stm32f1xx_ll_gpio.h ****   *         @arg @ref LL_GPIO_PIN_5
 582:Drivers/STM32F1xx_HAL_Driver/Inc/stm32f1xx_ll_gpio.h ****   *         @arg @ref LL_GPIO_PIN_6
 583:Drivers/STM32F1xx_HAL_Driver/Inc/stm32f1xx_ll_gpio.h ****   *         @arg @ref LL_GPIO_PIN_7
 584:Drivers/STM32F1xx_HAL_Driver/Inc/stm32f1xx_ll_gpio.h ****   *         @arg @ref LL_GPIO_PIN_8
 585:Drivers/STM32F1xx_HAL_Driver/Inc/stm32f1xx_ll_gpio.h ****   *         @arg @ref LL_GPIO_PIN_9
 586:Drivers/STM32F1xx_HAL_Driver/Inc/stm32f1xx_ll_gpio.h ****   *         @arg @ref LL_GPIO_PIN_10
 587:Drivers/STM32F1xx_HAL_Driver/Inc/stm32f1xx_ll_gpio.h ****   *         @arg @ref LL_GPIO_PIN_11
 588:Drivers/STM32F1xx_HAL_Driver/Inc/stm32f1xx_ll_gpio.h ****   *         @arg @ref LL_GPIO_PIN_12
 589:Drivers/STM32F1xx_HAL_Driver/Inc/stm32f1xx_ll_gpio.h ****   *         @arg @ref LL_GPIO_PIN_13
 590:Drivers/STM32F1xx_HAL_Driver/Inc/stm32f1xx_ll_gpio.h ****   *         @arg @ref LL_GPIO_PIN_14
 591:Drivers/STM32F1xx_HAL_Driver/Inc/stm32f1xx_ll_gpio.h ****   *         @arg @ref LL_GPIO_PIN_15
 592:Drivers/STM32F1xx_HAL_Driver/Inc/stm32f1xx_ll_gpio.h ****   * @retval Returned value can be one of the following values:
 593:Drivers/STM32F1xx_HAL_Driver/Inc/stm32f1xx_ll_gpio.h ****   *         @arg @ref LL_GPIO_PULL_DOWN
 594:Drivers/STM32F1xx_HAL_Driver/Inc/stm32f1xx_ll_gpio.h ****   *         @arg @ref LL_GPIO_PULL_UP
 595:Drivers/STM32F1xx_HAL_Driver/Inc/stm32f1xx_ll_gpio.h ****   */
 596:Drivers/STM32F1xx_HAL_Driver/Inc/stm32f1xx_ll_gpio.h **** __STATIC_INLINE uint32_t LL_GPIO_GetPinPull(GPIO_TypeDef *GPIOx, uint32_t Pin)
 597:Drivers/STM32F1xx_HAL_Driver/Inc/stm32f1xx_ll_gpio.h **** {
 598:Drivers/STM32F1xx_HAL_Driver/Inc/stm32f1xx_ll_gpio.h ****   return (READ_BIT(GPIOx->ODR, (GPIO_ODR_ODR0 << (POSITION_VAL(Pin >> GPIO_PIN_MASK_POS)))) >> (POS
 599:Drivers/STM32F1xx_HAL_Driver/Inc/stm32f1xx_ll_gpio.h **** }
 600:Drivers/STM32F1xx_HAL_Driver/Inc/stm32f1xx_ll_gpio.h **** 
 601:Drivers/STM32F1xx_HAL_Driver/Inc/stm32f1xx_ll_gpio.h **** /**
 602:Drivers/STM32F1xx_HAL_Driver/Inc/stm32f1xx_ll_gpio.h ****   * @brief  Lock configuration of several pins for a dedicated port.
 603:Drivers/STM32F1xx_HAL_Driver/Inc/stm32f1xx_ll_gpio.h ****   * @note   When the lock sequence has been applied on a port bit, the
 604:Drivers/STM32F1xx_HAL_Driver/Inc/stm32f1xx_ll_gpio.h ****   *         value of this port bit can no longer be modified until the
 605:Drivers/STM32F1xx_HAL_Driver/Inc/stm32f1xx_ll_gpio.h ****   *         next reset.
ARM GAS  C:\Users\YUEJIN~1\AppData\Local\Temp\ccpkfgFJ.s 			page 13


 606:Drivers/STM32F1xx_HAL_Driver/Inc/stm32f1xx_ll_gpio.h ****   * @note   Each lock bit freezes a specific configuration register
 607:Drivers/STM32F1xx_HAL_Driver/Inc/stm32f1xx_ll_gpio.h ****   *         (control and alternate function registers).
 608:Drivers/STM32F1xx_HAL_Driver/Inc/stm32f1xx_ll_gpio.h ****   * @rmtoll LCKR         LCKK          LL_GPIO_LockPin
 609:Drivers/STM32F1xx_HAL_Driver/Inc/stm32f1xx_ll_gpio.h ****   * @param  GPIOx GPIO Port
 610:Drivers/STM32F1xx_HAL_Driver/Inc/stm32f1xx_ll_gpio.h ****   * @param  PinMask This parameter can be a combination of the following values:
 611:Drivers/STM32F1xx_HAL_Driver/Inc/stm32f1xx_ll_gpio.h ****   *         @arg @ref LL_GPIO_PIN_0
 612:Drivers/STM32F1xx_HAL_Driver/Inc/stm32f1xx_ll_gpio.h ****   *         @arg @ref LL_GPIO_PIN_1
 613:Drivers/STM32F1xx_HAL_Driver/Inc/stm32f1xx_ll_gpio.h ****   *         @arg @ref LL_GPIO_PIN_2
 614:Drivers/STM32F1xx_HAL_Driver/Inc/stm32f1xx_ll_gpio.h ****   *         @arg @ref LL_GPIO_PIN_3
 615:Drivers/STM32F1xx_HAL_Driver/Inc/stm32f1xx_ll_gpio.h ****   *         @arg @ref LL_GPIO_PIN_4
 616:Drivers/STM32F1xx_HAL_Driver/Inc/stm32f1xx_ll_gpio.h ****   *         @arg @ref LL_GPIO_PIN_5
 617:Drivers/STM32F1xx_HAL_Driver/Inc/stm32f1xx_ll_gpio.h ****   *         @arg @ref LL_GPIO_PIN_6
 618:Drivers/STM32F1xx_HAL_Driver/Inc/stm32f1xx_ll_gpio.h ****   *         @arg @ref LL_GPIO_PIN_7
 619:Drivers/STM32F1xx_HAL_Driver/Inc/stm32f1xx_ll_gpio.h ****   *         @arg @ref LL_GPIO_PIN_8
 620:Drivers/STM32F1xx_HAL_Driver/Inc/stm32f1xx_ll_gpio.h ****   *         @arg @ref LL_GPIO_PIN_9
 621:Drivers/STM32F1xx_HAL_Driver/Inc/stm32f1xx_ll_gpio.h ****   *         @arg @ref LL_GPIO_PIN_10
 622:Drivers/STM32F1xx_HAL_Driver/Inc/stm32f1xx_ll_gpio.h ****   *         @arg @ref LL_GPIO_PIN_11
 623:Drivers/STM32F1xx_HAL_Driver/Inc/stm32f1xx_ll_gpio.h ****   *         @arg @ref LL_GPIO_PIN_12
 624:Drivers/STM32F1xx_HAL_Driver/Inc/stm32f1xx_ll_gpio.h ****   *         @arg @ref LL_GPIO_PIN_13
 625:Drivers/STM32F1xx_HAL_Driver/Inc/stm32f1xx_ll_gpio.h ****   *         @arg @ref LL_GPIO_PIN_14
 626:Drivers/STM32F1xx_HAL_Driver/Inc/stm32f1xx_ll_gpio.h ****   *         @arg @ref LL_GPIO_PIN_15
 627:Drivers/STM32F1xx_HAL_Driver/Inc/stm32f1xx_ll_gpio.h ****   *         @arg @ref LL_GPIO_PIN_ALL
 628:Drivers/STM32F1xx_HAL_Driver/Inc/stm32f1xx_ll_gpio.h ****   * @retval None
 629:Drivers/STM32F1xx_HAL_Driver/Inc/stm32f1xx_ll_gpio.h ****   */
 630:Drivers/STM32F1xx_HAL_Driver/Inc/stm32f1xx_ll_gpio.h **** __STATIC_INLINE void LL_GPIO_LockPin(GPIO_TypeDef *GPIOx, uint32_t PinMask)
 631:Drivers/STM32F1xx_HAL_Driver/Inc/stm32f1xx_ll_gpio.h **** {
 632:Drivers/STM32F1xx_HAL_Driver/Inc/stm32f1xx_ll_gpio.h ****   __IO uint32_t temp;
 633:Drivers/STM32F1xx_HAL_Driver/Inc/stm32f1xx_ll_gpio.h ****   WRITE_REG(GPIOx->LCKR, GPIO_LCKR_LCKK | ((PinMask >> GPIO_PIN_MASK_POS) & 0x0000FFFFU));
 634:Drivers/STM32F1xx_HAL_Driver/Inc/stm32f1xx_ll_gpio.h ****   WRITE_REG(GPIOx->LCKR, ((PinMask >> GPIO_PIN_MASK_POS) & 0x0000FFFFU));
 635:Drivers/STM32F1xx_HAL_Driver/Inc/stm32f1xx_ll_gpio.h ****   WRITE_REG(GPIOx->LCKR, GPIO_LCKR_LCKK | ((PinMask >> GPIO_PIN_MASK_POS) & 0x0000FFFFU));
 636:Drivers/STM32F1xx_HAL_Driver/Inc/stm32f1xx_ll_gpio.h ****   temp = READ_REG(GPIOx->LCKR);
 637:Drivers/STM32F1xx_HAL_Driver/Inc/stm32f1xx_ll_gpio.h ****   (void) temp;
 638:Drivers/STM32F1xx_HAL_Driver/Inc/stm32f1xx_ll_gpio.h **** }
 639:Drivers/STM32F1xx_HAL_Driver/Inc/stm32f1xx_ll_gpio.h **** 
 640:Drivers/STM32F1xx_HAL_Driver/Inc/stm32f1xx_ll_gpio.h **** /**
 641:Drivers/STM32F1xx_HAL_Driver/Inc/stm32f1xx_ll_gpio.h ****   * @brief  Return 1 if all pins passed as parameter, of a dedicated port, are locked. else Return 
 642:Drivers/STM32F1xx_HAL_Driver/Inc/stm32f1xx_ll_gpio.h ****   * @rmtoll LCKR         LCKy          LL_GPIO_IsPinLocked
 643:Drivers/STM32F1xx_HAL_Driver/Inc/stm32f1xx_ll_gpio.h ****   * @param  GPIOx GPIO Port
 644:Drivers/STM32F1xx_HAL_Driver/Inc/stm32f1xx_ll_gpio.h ****   * @param  PinMask This parameter can be a combination of the following values:
 645:Drivers/STM32F1xx_HAL_Driver/Inc/stm32f1xx_ll_gpio.h ****   *         @arg @ref LL_GPIO_PIN_0
 646:Drivers/STM32F1xx_HAL_Driver/Inc/stm32f1xx_ll_gpio.h ****   *         @arg @ref LL_GPIO_PIN_1
 647:Drivers/STM32F1xx_HAL_Driver/Inc/stm32f1xx_ll_gpio.h ****   *         @arg @ref LL_GPIO_PIN_2
 648:Drivers/STM32F1xx_HAL_Driver/Inc/stm32f1xx_ll_gpio.h ****   *         @arg @ref LL_GPIO_PIN_3
 649:Drivers/STM32F1xx_HAL_Driver/Inc/stm32f1xx_ll_gpio.h ****   *         @arg @ref LL_GPIO_PIN_4
 650:Drivers/STM32F1xx_HAL_Driver/Inc/stm32f1xx_ll_gpio.h ****   *         @arg @ref LL_GPIO_PIN_5
 651:Drivers/STM32F1xx_HAL_Driver/Inc/stm32f1xx_ll_gpio.h ****   *         @arg @ref LL_GPIO_PIN_6
 652:Drivers/STM32F1xx_HAL_Driver/Inc/stm32f1xx_ll_gpio.h ****   *         @arg @ref LL_GPIO_PIN_7
 653:Drivers/STM32F1xx_HAL_Driver/Inc/stm32f1xx_ll_gpio.h ****   *         @arg @ref LL_GPIO_PIN_8
 654:Drivers/STM32F1xx_HAL_Driver/Inc/stm32f1xx_ll_gpio.h ****   *         @arg @ref LL_GPIO_PIN_9
 655:Drivers/STM32F1xx_HAL_Driver/Inc/stm32f1xx_ll_gpio.h ****   *         @arg @ref LL_GPIO_PIN_10
 656:Drivers/STM32F1xx_HAL_Driver/Inc/stm32f1xx_ll_gpio.h ****   *         @arg @ref LL_GPIO_PIN_11
 657:Drivers/STM32F1xx_HAL_Driver/Inc/stm32f1xx_ll_gpio.h ****   *         @arg @ref LL_GPIO_PIN_12
 658:Drivers/STM32F1xx_HAL_Driver/Inc/stm32f1xx_ll_gpio.h ****   *         @arg @ref LL_GPIO_PIN_13
 659:Drivers/STM32F1xx_HAL_Driver/Inc/stm32f1xx_ll_gpio.h ****   *         @arg @ref LL_GPIO_PIN_14
 660:Drivers/STM32F1xx_HAL_Driver/Inc/stm32f1xx_ll_gpio.h ****   *         @arg @ref LL_GPIO_PIN_15
 661:Drivers/STM32F1xx_HAL_Driver/Inc/stm32f1xx_ll_gpio.h ****   *         @arg @ref LL_GPIO_PIN_ALL
 662:Drivers/STM32F1xx_HAL_Driver/Inc/stm32f1xx_ll_gpio.h ****   * @retval State of bit (1 or 0).
ARM GAS  C:\Users\YUEJIN~1\AppData\Local\Temp\ccpkfgFJ.s 			page 14


 663:Drivers/STM32F1xx_HAL_Driver/Inc/stm32f1xx_ll_gpio.h ****   */
 664:Drivers/STM32F1xx_HAL_Driver/Inc/stm32f1xx_ll_gpio.h **** __STATIC_INLINE uint32_t LL_GPIO_IsPinLocked(GPIO_TypeDef *GPIOx, uint32_t PinMask)
 665:Drivers/STM32F1xx_HAL_Driver/Inc/stm32f1xx_ll_gpio.h **** {
 666:Drivers/STM32F1xx_HAL_Driver/Inc/stm32f1xx_ll_gpio.h ****   return (READ_BIT(GPIOx->LCKR, ((PinMask >> GPIO_PIN_MASK_POS) & 0x0000FFFFU)) == ((PinMask >> GPI
 667:Drivers/STM32F1xx_HAL_Driver/Inc/stm32f1xx_ll_gpio.h **** }
 668:Drivers/STM32F1xx_HAL_Driver/Inc/stm32f1xx_ll_gpio.h **** 
 669:Drivers/STM32F1xx_HAL_Driver/Inc/stm32f1xx_ll_gpio.h **** /**
 670:Drivers/STM32F1xx_HAL_Driver/Inc/stm32f1xx_ll_gpio.h ****   * @brief  Return 1 if one of the pin of a dedicated port is locked. else return 0.
 671:Drivers/STM32F1xx_HAL_Driver/Inc/stm32f1xx_ll_gpio.h ****   * @rmtoll LCKR         LCKK          LL_GPIO_IsAnyPinLocked
 672:Drivers/STM32F1xx_HAL_Driver/Inc/stm32f1xx_ll_gpio.h ****   * @param  GPIOx GPIO Port
 673:Drivers/STM32F1xx_HAL_Driver/Inc/stm32f1xx_ll_gpio.h ****   * @retval State of bit (1 or 0).
 674:Drivers/STM32F1xx_HAL_Driver/Inc/stm32f1xx_ll_gpio.h ****   */
 675:Drivers/STM32F1xx_HAL_Driver/Inc/stm32f1xx_ll_gpio.h **** __STATIC_INLINE uint32_t LL_GPIO_IsAnyPinLocked(GPIO_TypeDef *GPIOx)
 676:Drivers/STM32F1xx_HAL_Driver/Inc/stm32f1xx_ll_gpio.h **** {
 677:Drivers/STM32F1xx_HAL_Driver/Inc/stm32f1xx_ll_gpio.h ****   return (READ_BIT(GPIOx->LCKR, GPIO_LCKR_LCKK) == (GPIO_LCKR_LCKK));
 678:Drivers/STM32F1xx_HAL_Driver/Inc/stm32f1xx_ll_gpio.h **** }
 679:Drivers/STM32F1xx_HAL_Driver/Inc/stm32f1xx_ll_gpio.h **** 
 680:Drivers/STM32F1xx_HAL_Driver/Inc/stm32f1xx_ll_gpio.h **** /**
 681:Drivers/STM32F1xx_HAL_Driver/Inc/stm32f1xx_ll_gpio.h ****   * @}
 682:Drivers/STM32F1xx_HAL_Driver/Inc/stm32f1xx_ll_gpio.h ****   */
 683:Drivers/STM32F1xx_HAL_Driver/Inc/stm32f1xx_ll_gpio.h **** 
 684:Drivers/STM32F1xx_HAL_Driver/Inc/stm32f1xx_ll_gpio.h **** /** @defgroup GPIO_LL_EF_Data_Access Data Access
 685:Drivers/STM32F1xx_HAL_Driver/Inc/stm32f1xx_ll_gpio.h ****   * @{
 686:Drivers/STM32F1xx_HAL_Driver/Inc/stm32f1xx_ll_gpio.h ****   */
 687:Drivers/STM32F1xx_HAL_Driver/Inc/stm32f1xx_ll_gpio.h **** 
 688:Drivers/STM32F1xx_HAL_Driver/Inc/stm32f1xx_ll_gpio.h **** /**
 689:Drivers/STM32F1xx_HAL_Driver/Inc/stm32f1xx_ll_gpio.h ****   * @brief  Return full input data register value for a dedicated port.
 690:Drivers/STM32F1xx_HAL_Driver/Inc/stm32f1xx_ll_gpio.h ****   * @rmtoll IDR          IDy           LL_GPIO_ReadInputPort
 691:Drivers/STM32F1xx_HAL_Driver/Inc/stm32f1xx_ll_gpio.h ****   * @param  GPIOx GPIO Port
 692:Drivers/STM32F1xx_HAL_Driver/Inc/stm32f1xx_ll_gpio.h ****   * @retval Input data register value of port
 693:Drivers/STM32F1xx_HAL_Driver/Inc/stm32f1xx_ll_gpio.h ****   */
 694:Drivers/STM32F1xx_HAL_Driver/Inc/stm32f1xx_ll_gpio.h **** __STATIC_INLINE uint32_t LL_GPIO_ReadInputPort(GPIO_TypeDef *GPIOx)
 695:Drivers/STM32F1xx_HAL_Driver/Inc/stm32f1xx_ll_gpio.h **** {
 696:Drivers/STM32F1xx_HAL_Driver/Inc/stm32f1xx_ll_gpio.h ****   return (READ_REG(GPIOx->IDR));
 697:Drivers/STM32F1xx_HAL_Driver/Inc/stm32f1xx_ll_gpio.h **** }
 698:Drivers/STM32F1xx_HAL_Driver/Inc/stm32f1xx_ll_gpio.h **** 
 699:Drivers/STM32F1xx_HAL_Driver/Inc/stm32f1xx_ll_gpio.h **** /**
 700:Drivers/STM32F1xx_HAL_Driver/Inc/stm32f1xx_ll_gpio.h ****   * @brief  Return if input data level for several pins of dedicated port is high or low.
 701:Drivers/STM32F1xx_HAL_Driver/Inc/stm32f1xx_ll_gpio.h ****   * @rmtoll IDR          IDy           LL_GPIO_IsInputPinSet
 702:Drivers/STM32F1xx_HAL_Driver/Inc/stm32f1xx_ll_gpio.h ****   * @param  GPIOx GPIO Port
 703:Drivers/STM32F1xx_HAL_Driver/Inc/stm32f1xx_ll_gpio.h ****   * @param  PinMask This parameter can be a combination of the following values:
 704:Drivers/STM32F1xx_HAL_Driver/Inc/stm32f1xx_ll_gpio.h ****   *         @arg @ref LL_GPIO_PIN_0
 705:Drivers/STM32F1xx_HAL_Driver/Inc/stm32f1xx_ll_gpio.h ****   *         @arg @ref LL_GPIO_PIN_1
 706:Drivers/STM32F1xx_HAL_Driver/Inc/stm32f1xx_ll_gpio.h ****   *         @arg @ref LL_GPIO_PIN_2
 707:Drivers/STM32F1xx_HAL_Driver/Inc/stm32f1xx_ll_gpio.h ****   *         @arg @ref LL_GPIO_PIN_3
 708:Drivers/STM32F1xx_HAL_Driver/Inc/stm32f1xx_ll_gpio.h ****   *         @arg @ref LL_GPIO_PIN_4
 709:Drivers/STM32F1xx_HAL_Driver/Inc/stm32f1xx_ll_gpio.h ****   *         @arg @ref LL_GPIO_PIN_5
 710:Drivers/STM32F1xx_HAL_Driver/Inc/stm32f1xx_ll_gpio.h ****   *         @arg @ref LL_GPIO_PIN_6
 711:Drivers/STM32F1xx_HAL_Driver/Inc/stm32f1xx_ll_gpio.h ****   *         @arg @ref LL_GPIO_PIN_7
 712:Drivers/STM32F1xx_HAL_Driver/Inc/stm32f1xx_ll_gpio.h ****   *         @arg @ref LL_GPIO_PIN_8
 713:Drivers/STM32F1xx_HAL_Driver/Inc/stm32f1xx_ll_gpio.h ****   *         @arg @ref LL_GPIO_PIN_9
 714:Drivers/STM32F1xx_HAL_Driver/Inc/stm32f1xx_ll_gpio.h ****   *         @arg @ref LL_GPIO_PIN_10
 715:Drivers/STM32F1xx_HAL_Driver/Inc/stm32f1xx_ll_gpio.h ****   *         @arg @ref LL_GPIO_PIN_11
 716:Drivers/STM32F1xx_HAL_Driver/Inc/stm32f1xx_ll_gpio.h ****   *         @arg @ref LL_GPIO_PIN_12
 717:Drivers/STM32F1xx_HAL_Driver/Inc/stm32f1xx_ll_gpio.h ****   *         @arg @ref LL_GPIO_PIN_13
 718:Drivers/STM32F1xx_HAL_Driver/Inc/stm32f1xx_ll_gpio.h ****   *         @arg @ref LL_GPIO_PIN_14
 719:Drivers/STM32F1xx_HAL_Driver/Inc/stm32f1xx_ll_gpio.h ****   *         @arg @ref LL_GPIO_PIN_15
ARM GAS  C:\Users\YUEJIN~1\AppData\Local\Temp\ccpkfgFJ.s 			page 15


 720:Drivers/STM32F1xx_HAL_Driver/Inc/stm32f1xx_ll_gpio.h ****   *         @arg @ref LL_GPIO_PIN_ALL
 721:Drivers/STM32F1xx_HAL_Driver/Inc/stm32f1xx_ll_gpio.h ****   * @retval State of bit (1 or 0).
 722:Drivers/STM32F1xx_HAL_Driver/Inc/stm32f1xx_ll_gpio.h ****   */
 723:Drivers/STM32F1xx_HAL_Driver/Inc/stm32f1xx_ll_gpio.h **** __STATIC_INLINE uint32_t LL_GPIO_IsInputPinSet(GPIO_TypeDef *GPIOx, uint32_t PinMask)
 724:Drivers/STM32F1xx_HAL_Driver/Inc/stm32f1xx_ll_gpio.h **** {
 725:Drivers/STM32F1xx_HAL_Driver/Inc/stm32f1xx_ll_gpio.h ****   return (READ_BIT(GPIOx->IDR, (PinMask >> GPIO_PIN_MASK_POS) & 0x0000FFFFU) == ((PinMask >> GPIO_P
 726:Drivers/STM32F1xx_HAL_Driver/Inc/stm32f1xx_ll_gpio.h **** }
 727:Drivers/STM32F1xx_HAL_Driver/Inc/stm32f1xx_ll_gpio.h **** 
 728:Drivers/STM32F1xx_HAL_Driver/Inc/stm32f1xx_ll_gpio.h **** /**
 729:Drivers/STM32F1xx_HAL_Driver/Inc/stm32f1xx_ll_gpio.h ****   * @brief  Write output data register for the port.
 730:Drivers/STM32F1xx_HAL_Driver/Inc/stm32f1xx_ll_gpio.h ****   * @rmtoll ODR          ODy           LL_GPIO_WriteOutputPort
 731:Drivers/STM32F1xx_HAL_Driver/Inc/stm32f1xx_ll_gpio.h ****   * @param  GPIOx GPIO Port
 732:Drivers/STM32F1xx_HAL_Driver/Inc/stm32f1xx_ll_gpio.h ****   * @param  PortValue Level value for each pin of the port
 733:Drivers/STM32F1xx_HAL_Driver/Inc/stm32f1xx_ll_gpio.h ****   * @retval None
 734:Drivers/STM32F1xx_HAL_Driver/Inc/stm32f1xx_ll_gpio.h ****   */
 735:Drivers/STM32F1xx_HAL_Driver/Inc/stm32f1xx_ll_gpio.h **** __STATIC_INLINE void LL_GPIO_WriteOutputPort(GPIO_TypeDef *GPIOx, uint32_t PortValue)
 736:Drivers/STM32F1xx_HAL_Driver/Inc/stm32f1xx_ll_gpio.h **** {
 737:Drivers/STM32F1xx_HAL_Driver/Inc/stm32f1xx_ll_gpio.h ****   WRITE_REG(GPIOx->ODR, PortValue);
 738:Drivers/STM32F1xx_HAL_Driver/Inc/stm32f1xx_ll_gpio.h **** }
 739:Drivers/STM32F1xx_HAL_Driver/Inc/stm32f1xx_ll_gpio.h **** 
 740:Drivers/STM32F1xx_HAL_Driver/Inc/stm32f1xx_ll_gpio.h **** /**
 741:Drivers/STM32F1xx_HAL_Driver/Inc/stm32f1xx_ll_gpio.h ****   * @brief  Return full output data register value for a dedicated port.
 742:Drivers/STM32F1xx_HAL_Driver/Inc/stm32f1xx_ll_gpio.h ****   * @rmtoll ODR          ODy           LL_GPIO_ReadOutputPort
 743:Drivers/STM32F1xx_HAL_Driver/Inc/stm32f1xx_ll_gpio.h ****   * @param  GPIOx GPIO Port
 744:Drivers/STM32F1xx_HAL_Driver/Inc/stm32f1xx_ll_gpio.h ****   * @retval Output data register value of port
 745:Drivers/STM32F1xx_HAL_Driver/Inc/stm32f1xx_ll_gpio.h ****   */
 746:Drivers/STM32F1xx_HAL_Driver/Inc/stm32f1xx_ll_gpio.h **** __STATIC_INLINE uint32_t LL_GPIO_ReadOutputPort(GPIO_TypeDef *GPIOx)
 747:Drivers/STM32F1xx_HAL_Driver/Inc/stm32f1xx_ll_gpio.h **** {
 748:Drivers/STM32F1xx_HAL_Driver/Inc/stm32f1xx_ll_gpio.h ****   return (uint32_t)(READ_REG(GPIOx->ODR));
 749:Drivers/STM32F1xx_HAL_Driver/Inc/stm32f1xx_ll_gpio.h **** }
 750:Drivers/STM32F1xx_HAL_Driver/Inc/stm32f1xx_ll_gpio.h **** 
 751:Drivers/STM32F1xx_HAL_Driver/Inc/stm32f1xx_ll_gpio.h **** /**
 752:Drivers/STM32F1xx_HAL_Driver/Inc/stm32f1xx_ll_gpio.h ****   * @brief  Return if input data level for several pins of dedicated port is high or low.
 753:Drivers/STM32F1xx_HAL_Driver/Inc/stm32f1xx_ll_gpio.h ****   * @rmtoll ODR          ODy           LL_GPIO_IsOutputPinSet
 754:Drivers/STM32F1xx_HAL_Driver/Inc/stm32f1xx_ll_gpio.h ****   * @param  GPIOx GPIO Port
 755:Drivers/STM32F1xx_HAL_Driver/Inc/stm32f1xx_ll_gpio.h ****   * @param  PinMask This parameter can be a combination of the following values:
 756:Drivers/STM32F1xx_HAL_Driver/Inc/stm32f1xx_ll_gpio.h ****   *         @arg @ref LL_GPIO_PIN_0
 757:Drivers/STM32F1xx_HAL_Driver/Inc/stm32f1xx_ll_gpio.h ****   *         @arg @ref LL_GPIO_PIN_1
 758:Drivers/STM32F1xx_HAL_Driver/Inc/stm32f1xx_ll_gpio.h ****   *         @arg @ref LL_GPIO_PIN_2
 759:Drivers/STM32F1xx_HAL_Driver/Inc/stm32f1xx_ll_gpio.h ****   *         @arg @ref LL_GPIO_PIN_3
 760:Drivers/STM32F1xx_HAL_Driver/Inc/stm32f1xx_ll_gpio.h ****   *         @arg @ref LL_GPIO_PIN_4
 761:Drivers/STM32F1xx_HAL_Driver/Inc/stm32f1xx_ll_gpio.h ****   *         @arg @ref LL_GPIO_PIN_5
 762:Drivers/STM32F1xx_HAL_Driver/Inc/stm32f1xx_ll_gpio.h ****   *         @arg @ref LL_GPIO_PIN_6
 763:Drivers/STM32F1xx_HAL_Driver/Inc/stm32f1xx_ll_gpio.h ****   *         @arg @ref LL_GPIO_PIN_7
 764:Drivers/STM32F1xx_HAL_Driver/Inc/stm32f1xx_ll_gpio.h ****   *         @arg @ref LL_GPIO_PIN_8
 765:Drivers/STM32F1xx_HAL_Driver/Inc/stm32f1xx_ll_gpio.h ****   *         @arg @ref LL_GPIO_PIN_9
 766:Drivers/STM32F1xx_HAL_Driver/Inc/stm32f1xx_ll_gpio.h ****   *         @arg @ref LL_GPIO_PIN_10
 767:Drivers/STM32F1xx_HAL_Driver/Inc/stm32f1xx_ll_gpio.h ****   *         @arg @ref LL_GPIO_PIN_11
 768:Drivers/STM32F1xx_HAL_Driver/Inc/stm32f1xx_ll_gpio.h ****   *         @arg @ref LL_GPIO_PIN_12
 769:Drivers/STM32F1xx_HAL_Driver/Inc/stm32f1xx_ll_gpio.h ****   *         @arg @ref LL_GPIO_PIN_13
 770:Drivers/STM32F1xx_HAL_Driver/Inc/stm32f1xx_ll_gpio.h ****   *         @arg @ref LL_GPIO_PIN_14
 771:Drivers/STM32F1xx_HAL_Driver/Inc/stm32f1xx_ll_gpio.h ****   *         @arg @ref LL_GPIO_PIN_15
 772:Drivers/STM32F1xx_HAL_Driver/Inc/stm32f1xx_ll_gpio.h ****   *         @arg @ref LL_GPIO_PIN_ALL
 773:Drivers/STM32F1xx_HAL_Driver/Inc/stm32f1xx_ll_gpio.h ****   * @retval State of bit (1 or 0).
 774:Drivers/STM32F1xx_HAL_Driver/Inc/stm32f1xx_ll_gpio.h ****   */
 775:Drivers/STM32F1xx_HAL_Driver/Inc/stm32f1xx_ll_gpio.h **** __STATIC_INLINE uint32_t LL_GPIO_IsOutputPinSet(GPIO_TypeDef *GPIOx, uint32_t PinMask)
 776:Drivers/STM32F1xx_HAL_Driver/Inc/stm32f1xx_ll_gpio.h **** {
ARM GAS  C:\Users\YUEJIN~1\AppData\Local\Temp\ccpkfgFJ.s 			page 16


 777:Drivers/STM32F1xx_HAL_Driver/Inc/stm32f1xx_ll_gpio.h ****   return (READ_BIT(GPIOx->ODR, (PinMask >> GPIO_PIN_MASK_POS) & 0x0000FFFFU) == ((PinMask >> GPIO_P
 778:Drivers/STM32F1xx_HAL_Driver/Inc/stm32f1xx_ll_gpio.h **** }
 779:Drivers/STM32F1xx_HAL_Driver/Inc/stm32f1xx_ll_gpio.h **** 
 780:Drivers/STM32F1xx_HAL_Driver/Inc/stm32f1xx_ll_gpio.h **** /**
 781:Drivers/STM32F1xx_HAL_Driver/Inc/stm32f1xx_ll_gpio.h ****   * @brief  Set several pins to high level on dedicated gpio port.
 782:Drivers/STM32F1xx_HAL_Driver/Inc/stm32f1xx_ll_gpio.h ****   * @rmtoll BSRR         BSy           LL_GPIO_SetOutputPin
 783:Drivers/STM32F1xx_HAL_Driver/Inc/stm32f1xx_ll_gpio.h ****   * @param  GPIOx GPIO Port
 784:Drivers/STM32F1xx_HAL_Driver/Inc/stm32f1xx_ll_gpio.h ****   * @param  PinMask This parameter can be a combination of the following values:
 785:Drivers/STM32F1xx_HAL_Driver/Inc/stm32f1xx_ll_gpio.h ****   *         @arg @ref LL_GPIO_PIN_0
 786:Drivers/STM32F1xx_HAL_Driver/Inc/stm32f1xx_ll_gpio.h ****   *         @arg @ref LL_GPIO_PIN_1
 787:Drivers/STM32F1xx_HAL_Driver/Inc/stm32f1xx_ll_gpio.h ****   *         @arg @ref LL_GPIO_PIN_2
 788:Drivers/STM32F1xx_HAL_Driver/Inc/stm32f1xx_ll_gpio.h ****   *         @arg @ref LL_GPIO_PIN_3
 789:Drivers/STM32F1xx_HAL_Driver/Inc/stm32f1xx_ll_gpio.h ****   *         @arg @ref LL_GPIO_PIN_4
 790:Drivers/STM32F1xx_HAL_Driver/Inc/stm32f1xx_ll_gpio.h ****   *         @arg @ref LL_GPIO_PIN_5
 791:Drivers/STM32F1xx_HAL_Driver/Inc/stm32f1xx_ll_gpio.h ****   *         @arg @ref LL_GPIO_PIN_6
 792:Drivers/STM32F1xx_HAL_Driver/Inc/stm32f1xx_ll_gpio.h ****   *         @arg @ref LL_GPIO_PIN_7
 793:Drivers/STM32F1xx_HAL_Driver/Inc/stm32f1xx_ll_gpio.h ****   *         @arg @ref LL_GPIO_PIN_8
 794:Drivers/STM32F1xx_HAL_Driver/Inc/stm32f1xx_ll_gpio.h ****   *         @arg @ref LL_GPIO_PIN_9
 795:Drivers/STM32F1xx_HAL_Driver/Inc/stm32f1xx_ll_gpio.h ****   *         @arg @ref LL_GPIO_PIN_10
 796:Drivers/STM32F1xx_HAL_Driver/Inc/stm32f1xx_ll_gpio.h ****   *         @arg @ref LL_GPIO_PIN_11
 797:Drivers/STM32F1xx_HAL_Driver/Inc/stm32f1xx_ll_gpio.h ****   *         @arg @ref LL_GPIO_PIN_12
 798:Drivers/STM32F1xx_HAL_Driver/Inc/stm32f1xx_ll_gpio.h ****   *         @arg @ref LL_GPIO_PIN_13
 799:Drivers/STM32F1xx_HAL_Driver/Inc/stm32f1xx_ll_gpio.h ****   *         @arg @ref LL_GPIO_PIN_14
 800:Drivers/STM32F1xx_HAL_Driver/Inc/stm32f1xx_ll_gpio.h ****   *         @arg @ref LL_GPIO_PIN_15
 801:Drivers/STM32F1xx_HAL_Driver/Inc/stm32f1xx_ll_gpio.h ****   *         @arg @ref LL_GPIO_PIN_ALL
 802:Drivers/STM32F1xx_HAL_Driver/Inc/stm32f1xx_ll_gpio.h ****   * @retval None
 803:Drivers/STM32F1xx_HAL_Driver/Inc/stm32f1xx_ll_gpio.h ****   */
 804:Drivers/STM32F1xx_HAL_Driver/Inc/stm32f1xx_ll_gpio.h **** __STATIC_INLINE void LL_GPIO_SetOutputPin(GPIO_TypeDef *GPIOx, uint32_t PinMask)
 805:Drivers/STM32F1xx_HAL_Driver/Inc/stm32f1xx_ll_gpio.h **** {
 806:Drivers/STM32F1xx_HAL_Driver/Inc/stm32f1xx_ll_gpio.h ****   WRITE_REG(GPIOx->BSRR, (PinMask >> GPIO_PIN_MASK_POS) & 0x0000FFFFU);
 807:Drivers/STM32F1xx_HAL_Driver/Inc/stm32f1xx_ll_gpio.h **** }
 808:Drivers/STM32F1xx_HAL_Driver/Inc/stm32f1xx_ll_gpio.h **** 
 809:Drivers/STM32F1xx_HAL_Driver/Inc/stm32f1xx_ll_gpio.h **** /**
 810:Drivers/STM32F1xx_HAL_Driver/Inc/stm32f1xx_ll_gpio.h ****   * @brief  Set several pins to low level on dedicated gpio port.
 811:Drivers/STM32F1xx_HAL_Driver/Inc/stm32f1xx_ll_gpio.h ****   * @rmtoll BRR          BRy           LL_GPIO_ResetOutputPin
 812:Drivers/STM32F1xx_HAL_Driver/Inc/stm32f1xx_ll_gpio.h ****   * @param  GPIOx GPIO Port
 813:Drivers/STM32F1xx_HAL_Driver/Inc/stm32f1xx_ll_gpio.h ****   * @param  PinMask This parameter can be a combination of the following values:
 814:Drivers/STM32F1xx_HAL_Driver/Inc/stm32f1xx_ll_gpio.h ****   *         @arg @ref LL_GPIO_PIN_0
 815:Drivers/STM32F1xx_HAL_Driver/Inc/stm32f1xx_ll_gpio.h ****   *         @arg @ref LL_GPIO_PIN_1
 816:Drivers/STM32F1xx_HAL_Driver/Inc/stm32f1xx_ll_gpio.h ****   *         @arg @ref LL_GPIO_PIN_2
 817:Drivers/STM32F1xx_HAL_Driver/Inc/stm32f1xx_ll_gpio.h ****   *         @arg @ref LL_GPIO_PIN_3
 818:Drivers/STM32F1xx_HAL_Driver/Inc/stm32f1xx_ll_gpio.h ****   *         @arg @ref LL_GPIO_PIN_4
 819:Drivers/STM32F1xx_HAL_Driver/Inc/stm32f1xx_ll_gpio.h ****   *         @arg @ref LL_GPIO_PIN_5
 820:Drivers/STM32F1xx_HAL_Driver/Inc/stm32f1xx_ll_gpio.h ****   *         @arg @ref LL_GPIO_PIN_6
 821:Drivers/STM32F1xx_HAL_Driver/Inc/stm32f1xx_ll_gpio.h ****   *         @arg @ref LL_GPIO_PIN_7
 822:Drivers/STM32F1xx_HAL_Driver/Inc/stm32f1xx_ll_gpio.h ****   *         @arg @ref LL_GPIO_PIN_8
 823:Drivers/STM32F1xx_HAL_Driver/Inc/stm32f1xx_ll_gpio.h ****   *         @arg @ref LL_GPIO_PIN_9
 824:Drivers/STM32F1xx_HAL_Driver/Inc/stm32f1xx_ll_gpio.h ****   *         @arg @ref LL_GPIO_PIN_10
 825:Drivers/STM32F1xx_HAL_Driver/Inc/stm32f1xx_ll_gpio.h ****   *         @arg @ref LL_GPIO_PIN_11
 826:Drivers/STM32F1xx_HAL_Driver/Inc/stm32f1xx_ll_gpio.h ****   *         @arg @ref LL_GPIO_PIN_12
 827:Drivers/STM32F1xx_HAL_Driver/Inc/stm32f1xx_ll_gpio.h ****   *         @arg @ref LL_GPIO_PIN_13
 828:Drivers/STM32F1xx_HAL_Driver/Inc/stm32f1xx_ll_gpio.h ****   *         @arg @ref LL_GPIO_PIN_14
 829:Drivers/STM32F1xx_HAL_Driver/Inc/stm32f1xx_ll_gpio.h ****   *         @arg @ref LL_GPIO_PIN_15
 830:Drivers/STM32F1xx_HAL_Driver/Inc/stm32f1xx_ll_gpio.h ****   *         @arg @ref LL_GPIO_PIN_ALL
 831:Drivers/STM32F1xx_HAL_Driver/Inc/stm32f1xx_ll_gpio.h ****   * @retval None
 832:Drivers/STM32F1xx_HAL_Driver/Inc/stm32f1xx_ll_gpio.h ****   */
 833:Drivers/STM32F1xx_HAL_Driver/Inc/stm32f1xx_ll_gpio.h **** __STATIC_INLINE void LL_GPIO_ResetOutputPin(GPIO_TypeDef *GPIOx, uint32_t PinMask)
ARM GAS  C:\Users\YUEJIN~1\AppData\Local\Temp\ccpkfgFJ.s 			page 17


  57              		.loc 2 833 22 view .LVU4
  58              	.LBB11:
 834:Drivers/STM32F1xx_HAL_Driver/Inc/stm32f1xx_ll_gpio.h **** {
 835:Drivers/STM32F1xx_HAL_Driver/Inc/stm32f1xx_ll_gpio.h ****   WRITE_REG(GPIOx->BRR, (PinMask >> GPIO_PIN_MASK_POS) & 0x0000FFFFU);
  59              		.loc 2 835 3 view .LVU5
  60 0000 014B     		ldr	r3, .L3
  61 0002 1022     		movs	r2, #16
  62 0004 5A61     		str	r2, [r3, #20]
  63              	.LVL1:
  64              		.loc 2 835 3 is_stmt 0 view .LVU6
  65              	.LBE11:
  66              	.LBE10:
  27:Core/Src/oled.c ****     oledDelayUs();
  67              		.loc 1 27 5 is_stmt 1 view .LVU7
  28:Core/Src/oled.c **** }
  68              		.loc 1 28 1 is_stmt 0 view .LVU8
  69 0006 7047     		bx	lr
  70              	.L4:
  71              		.align	2
  72              	.L3:
  73 0008 000C0140 		.word	1073810432
  74              		.cfi_endproc
  75              	.LFE839:
  77              		.section	.text.OLED_SCLK_Set,"ax",%progbits
  78              		.align	1
  79              		.global	OLED_SCLK_Set
  80              		.syntax unified
  81              		.thumb
  82              		.thumb_func
  83              		.fpu softvfp
  85              	OLED_SCLK_Set:
  86              	.LFB840:
  29:Core/Src/oled.c **** 
  30:Core/Src/oled.c **** /* static inline */ void OLED_SCLK_Set()
  31:Core/Src/oled.c **** {
  87              		.loc 1 31 1 is_stmt 1 view -0
  88              		.cfi_startproc
  89              		@ args = 0, pretend = 0, frame = 0
  90              		@ frame_needed = 0, uses_anonymous_args = 0
  91              		@ link register save eliminated.
  32:Core/Src/oled.c ****     LL_GPIO_SetOutputPin(SCL_GPIO_Port, SCL_Pin);
  92              		.loc 1 32 5 view .LVU10
  93              	.LVL2:
  94              	.LBB12:
  95              	.LBI12:
 804:Drivers/STM32F1xx_HAL_Driver/Inc/stm32f1xx_ll_gpio.h **** {
  96              		.loc 2 804 22 view .LVU11
  97              	.LBB13:
 806:Drivers/STM32F1xx_HAL_Driver/Inc/stm32f1xx_ll_gpio.h **** }
  98              		.loc 2 806 3 view .LVU12
  99 0000 014B     		ldr	r3, .L6
 100 0002 1022     		movs	r2, #16
 101 0004 1A61     		str	r2, [r3, #16]
 102              	.LVL3:
 806:Drivers/STM32F1xx_HAL_Driver/Inc/stm32f1xx_ll_gpio.h **** }
 103              		.loc 2 806 3 is_stmt 0 view .LVU13
 104              	.LBE13:
ARM GAS  C:\Users\YUEJIN~1\AppData\Local\Temp\ccpkfgFJ.s 			page 18


 105              	.LBE12:
  33:Core/Src/oled.c ****     oledDelayUs();
 106              		.loc 1 33 5 is_stmt 1 view .LVU14
  34:Core/Src/oled.c **** }
 107              		.loc 1 34 1 is_stmt 0 view .LVU15
 108 0006 7047     		bx	lr
 109              	.L7:
 110              		.align	2
 111              	.L6:
 112 0008 000C0140 		.word	1073810432
 113              		.cfi_endproc
 114              	.LFE840:
 116              		.section	.text.OLED_SDIN_Clr,"ax",%progbits
 117              		.align	1
 118              		.global	OLED_SDIN_Clr
 119              		.syntax unified
 120              		.thumb
 121              		.thumb_func
 122              		.fpu softvfp
 124              	OLED_SDIN_Clr:
 125              	.LFB841:
  35:Core/Src/oled.c **** 
  36:Core/Src/oled.c **** /* static inline */ void OLED_SDIN_Clr()
  37:Core/Src/oled.c **** {
 126              		.loc 1 37 1 is_stmt 1 view -0
 127              		.cfi_startproc
 128              		@ args = 0, pretend = 0, frame = 0
 129              		@ frame_needed = 0, uses_anonymous_args = 0
 130              		@ link register save eliminated.
  38:Core/Src/oled.c ****     LL_GPIO_ResetOutputPin(SDA_GPIO_Port, SDA_Pin);
 131              		.loc 1 38 5 view .LVU17
 132              	.LVL4:
 133              	.LBB14:
 134              	.LBI14:
 833:Drivers/STM32F1xx_HAL_Driver/Inc/stm32f1xx_ll_gpio.h **** {
 135              		.loc 2 833 22 view .LVU18
 136              	.LBB15:
 137              		.loc 2 835 3 view .LVU19
 138 0000 014B     		ldr	r3, .L9
 139 0002 2022     		movs	r2, #32
 140 0004 5A61     		str	r2, [r3, #20]
 141              	.LVL5:
 142              		.loc 2 835 3 is_stmt 0 view .LVU20
 143              	.LBE15:
 144              	.LBE14:
  39:Core/Src/oled.c **** }
 145              		.loc 1 39 1 view .LVU21
 146 0006 7047     		bx	lr
 147              	.L10:
 148              		.align	2
 149              	.L9:
 150 0008 000C0140 		.word	1073810432
 151              		.cfi_endproc
 152              	.LFE841:
 154              		.section	.text.OLED_SDIN_Set,"ax",%progbits
 155              		.align	1
 156              		.global	OLED_SDIN_Set
ARM GAS  C:\Users\YUEJIN~1\AppData\Local\Temp\ccpkfgFJ.s 			page 19


 157              		.syntax unified
 158              		.thumb
 159              		.thumb_func
 160              		.fpu softvfp
 162              	OLED_SDIN_Set:
 163              	.LFB842:
  40:Core/Src/oled.c **** /* static inline */ void OLED_SDIN_Set()
  41:Core/Src/oled.c **** {
 164              		.loc 1 41 1 is_stmt 1 view -0
 165              		.cfi_startproc
 166              		@ args = 0, pretend = 0, frame = 0
 167              		@ frame_needed = 0, uses_anonymous_args = 0
 168              		@ link register save eliminated.
  42:Core/Src/oled.c ****     LL_GPIO_SetOutputPin(SDA_GPIO_Port, SDA_Pin);
 169              		.loc 1 42 5 view .LVU23
 170              	.LVL6:
 171              	.LBB16:
 172              	.LBI16:
 804:Drivers/STM32F1xx_HAL_Driver/Inc/stm32f1xx_ll_gpio.h **** {
 173              		.loc 2 804 22 view .LVU24
 174              	.LBB17:
 806:Drivers/STM32F1xx_HAL_Driver/Inc/stm32f1xx_ll_gpio.h **** }
 175              		.loc 2 806 3 view .LVU25
 176 0000 014B     		ldr	r3, .L12
 177 0002 2022     		movs	r2, #32
 178 0004 1A61     		str	r2, [r3, #16]
 179              	.LVL7:
 806:Drivers/STM32F1xx_HAL_Driver/Inc/stm32f1xx_ll_gpio.h **** }
 180              		.loc 2 806 3 is_stmt 0 view .LVU26
 181              	.LBE17:
 182              	.LBE16:
  43:Core/Src/oled.c **** }
 183              		.loc 1 43 1 view .LVU27
 184 0006 7047     		bx	lr
 185              	.L13:
 186              		.align	2
 187              	.L12:
 188 0008 000C0140 		.word	1073810432
 189              		.cfi_endproc
 190              	.LFE842:
 192              		.section	.text.IIC_Start,"ax",%progbits
 193              		.align	1
 194              		.global	IIC_Start
 195              		.syntax unified
 196              		.thumb
 197              		.thumb_func
 198              		.fpu softvfp
 200              	IIC_Start:
 201              	.LFB843:
  44:Core/Src/oled.c **** 
  45:Core/Src/oled.c **** /* static inline */ void IIC_Start()
  46:Core/Src/oled.c **** {
 202              		.loc 1 46 1 is_stmt 1 view -0
 203              		.cfi_startproc
 204              		@ args = 0, pretend = 0, frame = 0
 205              		@ frame_needed = 0, uses_anonymous_args = 0
 206 0000 08B5     		push	{r3, lr}
ARM GAS  C:\Users\YUEJIN~1\AppData\Local\Temp\ccpkfgFJ.s 			page 20


 207              	.LCFI0:
 208              		.cfi_def_cfa_offset 8
 209              		.cfi_offset 3, -8
 210              		.cfi_offset 14, -4
  47:Core/Src/oled.c **** 
  48:Core/Src/oled.c ****     OLED_SCLK_Set();
 211              		.loc 1 48 5 view .LVU29
 212 0002 FFF7FEFF 		bl	OLED_SCLK_Set
 213              	.LVL8:
  49:Core/Src/oled.c ****     OLED_SDIN_Set();
 214              		.loc 1 49 5 view .LVU30
 215 0006 FFF7FEFF 		bl	OLED_SDIN_Set
 216              	.LVL9:
  50:Core/Src/oled.c ****     OLED_SDIN_Clr();
 217              		.loc 1 50 5 view .LVU31
 218 000a FFF7FEFF 		bl	OLED_SDIN_Clr
 219              	.LVL10:
  51:Core/Src/oled.c ****     OLED_SCLK_Clr();
 220              		.loc 1 51 5 view .LVU32
 221 000e FFF7FEFF 		bl	OLED_SCLK_Clr
 222              	.LVL11:
  52:Core/Src/oled.c **** }
 223              		.loc 1 52 1 is_stmt 0 view .LVU33
 224 0012 08BD     		pop	{r3, pc}
 225              		.cfi_endproc
 226              	.LFE843:
 228              		.section	.text.IIC_Stop,"ax",%progbits
 229              		.align	1
 230              		.global	IIC_Stop
 231              		.syntax unified
 232              		.thumb
 233              		.thumb_func
 234              		.fpu softvfp
 236              	IIC_Stop:
 237              	.LFB844:
  53:Core/Src/oled.c **** 
  54:Core/Src/oled.c **** /* static inline */ void IIC_Stop()
  55:Core/Src/oled.c **** {
 238              		.loc 1 55 1 is_stmt 1 view -0
 239              		.cfi_startproc
 240              		@ args = 0, pretend = 0, frame = 0
 241              		@ frame_needed = 0, uses_anonymous_args = 0
 242 0000 08B5     		push	{r3, lr}
 243              	.LCFI1:
 244              		.cfi_def_cfa_offset 8
 245              		.cfi_offset 3, -8
 246              		.cfi_offset 14, -4
  56:Core/Src/oled.c ****     OLED_SCLK_Set();
 247              		.loc 1 56 5 view .LVU35
 248 0002 FFF7FEFF 		bl	OLED_SCLK_Set
 249              	.LVL12:
  57:Core/Src/oled.c ****     OLED_SDIN_Clr();
 250              		.loc 1 57 5 view .LVU36
 251 0006 FFF7FEFF 		bl	OLED_SDIN_Clr
 252              	.LVL13:
  58:Core/Src/oled.c ****     OLED_SDIN_Set();
 253              		.loc 1 58 5 view .LVU37
ARM GAS  C:\Users\YUEJIN~1\AppData\Local\Temp\ccpkfgFJ.s 			page 21


 254 000a FFF7FEFF 		bl	OLED_SDIN_Set
 255              	.LVL14:
  59:Core/Src/oled.c **** }
 256              		.loc 1 59 1 is_stmt 0 view .LVU38
 257 000e 08BD     		pop	{r3, pc}
 258              		.cfi_endproc
 259              	.LFE844:
 261              		.section	.text.IIC_Wait_Ack,"ax",%progbits
 262              		.align	1
 263              		.global	IIC_Wait_Ack
 264              		.syntax unified
 265              		.thumb
 266              		.thumb_func
 267              		.fpu softvfp
 269              	IIC_Wait_Ack:
 270              	.LFB845:
  60:Core/Src/oled.c **** 
  61:Core/Src/oled.c **** /* static inline */ void IIC_Wait_Ack()
  62:Core/Src/oled.c **** {
 271              		.loc 1 62 1 is_stmt 1 view -0
 272              		.cfi_startproc
 273              		@ args = 0, pretend = 0, frame = 0
 274              		@ frame_needed = 0, uses_anonymous_args = 0
 275 0000 08B5     		push	{r3, lr}
 276              	.LCFI2:
 277              		.cfi_def_cfa_offset 8
 278              		.cfi_offset 3, -8
 279              		.cfi_offset 14, -4
  63:Core/Src/oled.c ****     OLED_SCLK_Set();
 280              		.loc 1 63 5 view .LVU40
 281 0002 FFF7FEFF 		bl	OLED_SCLK_Set
 282              	.LVL15:
  64:Core/Src/oled.c ****     OLED_SCLK_Clr();
 283              		.loc 1 64 5 view .LVU41
 284 0006 FFF7FEFF 		bl	OLED_SCLK_Clr
 285              	.LVL16:
  65:Core/Src/oled.c **** }
 286              		.loc 1 65 1 is_stmt 0 view .LVU42
 287 000a 08BD     		pop	{r3, pc}
 288              		.cfi_endproc
 289              	.LFE845:
 291              		.section	.text.Write_IIC_Byte,"ax",%progbits
 292              		.align	1
 293              		.global	Write_IIC_Byte
 294              		.syntax unified
 295              		.thumb
 296              		.thumb_func
 297              		.fpu softvfp
 299              	Write_IIC_Byte:
 300              	.LVL17:
 301              	.LFB846:
  66:Core/Src/oled.c **** 
  67:Core/Src/oled.c **** /* static inline */ void Write_IIC_Byte(unsigned char IIC_Byte)
  68:Core/Src/oled.c **** {
 302              		.loc 1 68 1 is_stmt 1 view -0
 303              		.cfi_startproc
 304              		@ args = 0, pretend = 0, frame = 0
ARM GAS  C:\Users\YUEJIN~1\AppData\Local\Temp\ccpkfgFJ.s 			page 22


 305              		@ frame_needed = 0, uses_anonymous_args = 0
 306              		.loc 1 68 1 is_stmt 0 view .LVU44
 307 0000 38B5     		push	{r3, r4, r5, lr}
 308              	.LCFI3:
 309              		.cfi_def_cfa_offset 16
 310              		.cfi_offset 3, -16
 311              		.cfi_offset 4, -12
 312              		.cfi_offset 5, -8
 313              		.cfi_offset 14, -4
 314 0002 0446     		mov	r4, r0
  69:Core/Src/oled.c ****     unsigned char i;
 315              		.loc 1 69 5 is_stmt 1 view .LVU45
  70:Core/Src/oled.c ****     unsigned char m, da;
 316              		.loc 1 70 5 view .LVU46
  71:Core/Src/oled.c ****     da = IIC_Byte;
 317              		.loc 1 71 5 view .LVU47
 318              	.LVL18:
  72:Core/Src/oled.c ****     OLED_SCLK_Clr();
 319              		.loc 1 72 5 view .LVU48
 320 0004 FFF7FEFF 		bl	OLED_SCLK_Clr
 321              	.LVL19:
  73:Core/Src/oled.c ****     for (i = 0; i < 8; i++)
 322              		.loc 1 73 5 view .LVU49
 323              		.loc 1 73 12 is_stmt 0 view .LVU50
 324 0008 0025     		movs	r5, #0
 325              		.loc 1 73 5 view .LVU51
 326 000a 09E0     		b	.L21
 327              	.LVL20:
 328              	.L22:
  74:Core/Src/oled.c ****     {
  75:Core/Src/oled.c ****         m = da;
  76:Core/Src/oled.c ****         m = m & 0x80;
  77:Core/Src/oled.c ****         if (m == 0x80)
  78:Core/Src/oled.c ****         {
  79:Core/Src/oled.c ****             OLED_SDIN_Set();
  80:Core/Src/oled.c ****         }
  81:Core/Src/oled.c ****         else
  82:Core/Src/oled.c ****             OLED_SDIN_Clr();
 329              		.loc 1 82 13 is_stmt 1 view .LVU52
 330 000c FFF7FEFF 		bl	OLED_SDIN_Clr
 331              	.LVL21:
 332              	.L23:
  83:Core/Src/oled.c ****         da = da << 1;
 333              		.loc 1 83 9 discriminator 2 view .LVU53
 334              		.loc 1 83 12 is_stmt 0 discriminator 2 view .LVU54
 335 0010 6400     		lsls	r4, r4, #1
 336              	.LVL22:
 337              		.loc 1 83 12 discriminator 2 view .LVU55
 338 0012 E4B2     		uxtb	r4, r4
 339              	.LVL23:
  84:Core/Src/oled.c ****         OLED_SCLK_Set();
 340              		.loc 1 84 9 is_stmt 1 discriminator 2 view .LVU56
 341 0014 FFF7FEFF 		bl	OLED_SCLK_Set
 342              	.LVL24:
  85:Core/Src/oled.c ****         OLED_SCLK_Clr();
 343              		.loc 1 85 9 discriminator 2 view .LVU57
 344 0018 FFF7FEFF 		bl	OLED_SCLK_Clr
ARM GAS  C:\Users\YUEJIN~1\AppData\Local\Temp\ccpkfgFJ.s 			page 23


 345              	.LVL25:
  73:Core/Src/oled.c ****     {
 346              		.loc 1 73 24 discriminator 2 view .LVU58
  73:Core/Src/oled.c ****     {
 347              		.loc 1 73 25 is_stmt 0 discriminator 2 view .LVU59
 348 001c 0135     		adds	r5, r5, #1
 349              	.LVL26:
  73:Core/Src/oled.c ****     {
 350              		.loc 1 73 25 discriminator 2 view .LVU60
 351 001e EDB2     		uxtb	r5, r5
 352              	.LVL27:
 353              	.L21:
  73:Core/Src/oled.c ****     {
 354              		.loc 1 73 17 is_stmt 1 discriminator 1 view .LVU61
  73:Core/Src/oled.c ****     {
 355              		.loc 1 73 5 is_stmt 0 discriminator 1 view .LVU62
 356 0020 072D     		cmp	r5, #7
 357 0022 05D8     		bhi	.L26
  75:Core/Src/oled.c ****         m = m & 0x80;
 358              		.loc 1 75 9 is_stmt 1 view .LVU63
 359              	.LVL28:
  76:Core/Src/oled.c ****         if (m == 0x80)
 360              		.loc 1 76 9 view .LVU64
  77:Core/Src/oled.c ****         {
 361              		.loc 1 77 9 view .LVU65
  77:Core/Src/oled.c ****         {
 362              		.loc 1 77 12 is_stmt 0 view .LVU66
 363 0024 14F0800F 		tst	r4, #128
 364 0028 F0D0     		beq	.L22
  79:Core/Src/oled.c ****         }
 365              		.loc 1 79 13 is_stmt 1 view .LVU67
 366 002a FFF7FEFF 		bl	OLED_SDIN_Set
 367              	.LVL29:
 368 002e EFE7     		b	.L23
 369              	.LVL30:
 370              	.L26:
  86:Core/Src/oled.c ****     }
  87:Core/Src/oled.c **** }
 371              		.loc 1 87 1 is_stmt 0 view .LVU68
 372 0030 38BD     		pop	{r3, r4, r5, pc}
 373              		.loc 1 87 1 view .LVU69
 374              		.cfi_endproc
 375              	.LFE846:
 377              		.section	.text.Write_IIC_Command,"ax",%progbits
 378              		.align	1
 379              		.global	Write_IIC_Command
 380              		.syntax unified
 381              		.thumb
 382              		.thumb_func
 383              		.fpu softvfp
 385              	Write_IIC_Command:
 386              	.LVL31:
 387              	.LFB847:
  88:Core/Src/oled.c **** 
  89:Core/Src/oled.c **** /* static inline */ void Write_IIC_Command(unsigned char IIC_Command)
  90:Core/Src/oled.c **** {
 388              		.loc 1 90 1 is_stmt 1 view -0
ARM GAS  C:\Users\YUEJIN~1\AppData\Local\Temp\ccpkfgFJ.s 			page 24


 389              		.cfi_startproc
 390              		@ args = 0, pretend = 0, frame = 0
 391              		@ frame_needed = 0, uses_anonymous_args = 0
 392              		.loc 1 90 1 is_stmt 0 view .LVU71
 393 0000 10B5     		push	{r4, lr}
 394              	.LCFI4:
 395              		.cfi_def_cfa_offset 8
 396              		.cfi_offset 4, -8
 397              		.cfi_offset 14, -4
 398 0002 0446     		mov	r4, r0
  91:Core/Src/oled.c ****     IIC_Start();
 399              		.loc 1 91 5 is_stmt 1 view .LVU72
 400 0004 FFF7FEFF 		bl	IIC_Start
 401              	.LVL32:
  92:Core/Src/oled.c ****     Write_IIC_Byte(IIC_SLAVE_ADDR); //Slave address,SA0=0
 402              		.loc 1 92 5 view .LVU73
 403 0008 7820     		movs	r0, #120
 404 000a FFF7FEFF 		bl	Write_IIC_Byte
 405              	.LVL33:
  93:Core/Src/oled.c ****     IIC_Wait_Ack();
 406              		.loc 1 93 5 view .LVU74
 407 000e FFF7FEFF 		bl	IIC_Wait_Ack
 408              	.LVL34:
  94:Core/Src/oled.c ****     Write_IIC_Byte(0x00); //write command
 409              		.loc 1 94 5 view .LVU75
 410 0012 0020     		movs	r0, #0
 411 0014 FFF7FEFF 		bl	Write_IIC_Byte
 412              	.LVL35:
  95:Core/Src/oled.c ****     IIC_Wait_Ack();
 413              		.loc 1 95 5 view .LVU76
 414 0018 FFF7FEFF 		bl	IIC_Wait_Ack
 415              	.LVL36:
  96:Core/Src/oled.c ****     Write_IIC_Byte(IIC_Command);
 416              		.loc 1 96 5 view .LVU77
 417 001c 2046     		mov	r0, r4
 418 001e FFF7FEFF 		bl	Write_IIC_Byte
 419              	.LVL37:
  97:Core/Src/oled.c ****     IIC_Wait_Ack();
 420              		.loc 1 97 5 view .LVU78
 421 0022 FFF7FEFF 		bl	IIC_Wait_Ack
 422              	.LVL38:
  98:Core/Src/oled.c ****     IIC_Stop();
 423              		.loc 1 98 5 view .LVU79
 424 0026 FFF7FEFF 		bl	IIC_Stop
 425              	.LVL39:
  99:Core/Src/oled.c **** }
 426              		.loc 1 99 1 is_stmt 0 view .LVU80
 427 002a 10BD     		pop	{r4, pc}
 428              		.cfi_endproc
 429              	.LFE847:
 431              		.section	.text.Write_IIC_Data,"ax",%progbits
 432              		.align	1
 433              		.global	Write_IIC_Data
 434              		.syntax unified
 435              		.thumb
 436              		.thumb_func
 437              		.fpu softvfp
ARM GAS  C:\Users\YUEJIN~1\AppData\Local\Temp\ccpkfgFJ.s 			page 25


 439              	Write_IIC_Data:
 440              	.LVL40:
 441              	.LFB848:
 100:Core/Src/oled.c **** 
 101:Core/Src/oled.c **** /* static inline */ void Write_IIC_Data(unsigned char IIC_Data)
 102:Core/Src/oled.c **** {
 442              		.loc 1 102 1 is_stmt 1 view -0
 443              		.cfi_startproc
 444              		@ args = 0, pretend = 0, frame = 0
 445              		@ frame_needed = 0, uses_anonymous_args = 0
 446              		.loc 1 102 1 is_stmt 0 view .LVU82
 447 0000 10B5     		push	{r4, lr}
 448              	.LCFI5:
 449              		.cfi_def_cfa_offset 8
 450              		.cfi_offset 4, -8
 451              		.cfi_offset 14, -4
 452 0002 0446     		mov	r4, r0
 103:Core/Src/oled.c ****     IIC_Start();
 453              		.loc 1 103 5 is_stmt 1 view .LVU83
 454 0004 FFF7FEFF 		bl	IIC_Start
 455              	.LVL41:
 104:Core/Src/oled.c ****     Write_IIC_Byte(IIC_SLAVE_ADDR); //D/C#=0; R/W#=0
 456              		.loc 1 104 5 view .LVU84
 457 0008 7820     		movs	r0, #120
 458 000a FFF7FEFF 		bl	Write_IIC_Byte
 459              	.LVL42:
 105:Core/Src/oled.c ****     IIC_Wait_Ack();
 460              		.loc 1 105 5 view .LVU85
 461 000e FFF7FEFF 		bl	IIC_Wait_Ack
 462              	.LVL43:
 106:Core/Src/oled.c ****     Write_IIC_Byte(0x40); //write data
 463              		.loc 1 106 5 view .LVU86
 464 0012 4020     		movs	r0, #64
 465 0014 FFF7FEFF 		bl	Write_IIC_Byte
 466              	.LVL44:
 107:Core/Src/oled.c ****     IIC_Wait_Ack();
 467              		.loc 1 107 5 view .LVU87
 468 0018 FFF7FEFF 		bl	IIC_Wait_Ack
 469              	.LVL45:
 108:Core/Src/oled.c ****     Write_IIC_Byte(IIC_Data);
 470              		.loc 1 108 5 view .LVU88
 471 001c 2046     		mov	r0, r4
 472 001e FFF7FEFF 		bl	Write_IIC_Byte
 473              	.LVL46:
 109:Core/Src/oled.c ****     IIC_Wait_Ack();
 474              		.loc 1 109 5 view .LVU89
 475 0022 FFF7FEFF 		bl	IIC_Wait_Ack
 476              	.LVL47:
 110:Core/Src/oled.c ****     IIC_Stop();
 477              		.loc 1 110 5 view .LVU90
 478 0026 FFF7FEFF 		bl	IIC_Stop
 479              	.LVL48:
 111:Core/Src/oled.c **** }
 480              		.loc 1 111 1 is_stmt 0 view .LVU91
 481 002a 10BD     		pop	{r4, pc}
 482              		.cfi_endproc
 483              	.LFE848:
ARM GAS  C:\Users\YUEJIN~1\AppData\Local\Temp\ccpkfgFJ.s 			page 26


 485              		.section	.text.OLED_WR_Byte,"ax",%progbits
 486              		.align	1
 487              		.global	OLED_WR_Byte
 488              		.syntax unified
 489              		.thumb
 490              		.thumb_func
 491              		.fpu softvfp
 493              	OLED_WR_Byte:
 494              	.LVL49:
 495              	.LFB849:
 112:Core/Src/oled.c **** 
 113:Core/Src/oled.c **** void OLED_WR_Byte(unsigned dat, unsigned cmd)
 114:Core/Src/oled.c **** {
 496              		.loc 1 114 1 is_stmt 1 view -0
 497              		.cfi_startproc
 498              		@ args = 0, pretend = 0, frame = 0
 499              		@ frame_needed = 0, uses_anonymous_args = 0
 500              		.loc 1 114 1 is_stmt 0 view .LVU93
 501 0000 08B5     		push	{r3, lr}
 502              	.LCFI6:
 503              		.cfi_def_cfa_offset 8
 504              		.cfi_offset 3, -8
 505              		.cfi_offset 14, -4
 115:Core/Src/oled.c ****     if (cmd)
 506              		.loc 1 115 5 is_stmt 1 view .LVU94
 507              		.loc 1 115 8 is_stmt 0 view .LVU95
 508 0002 19B1     		cbz	r1, .L32
 116:Core/Src/oled.c ****     {
 117:Core/Src/oled.c **** 
 118:Core/Src/oled.c ****         Write_IIC_Data(dat);
 509              		.loc 1 118 9 is_stmt 1 view .LVU96
 510 0004 C0B2     		uxtb	r0, r0
 511              	.LVL50:
 512              		.loc 1 118 9 is_stmt 0 view .LVU97
 513 0006 FFF7FEFF 		bl	Write_IIC_Data
 514              	.LVL51:
 515              	.L31:
 119:Core/Src/oled.c ****     }
 120:Core/Src/oled.c ****     else
 121:Core/Src/oled.c ****     {
 122:Core/Src/oled.c ****         Write_IIC_Command(dat);
 123:Core/Src/oled.c ****     }
 124:Core/Src/oled.c **** }
 516              		.loc 1 124 1 view .LVU98
 517 000a 08BD     		pop	{r3, pc}
 518              	.LVL52:
 519              	.L32:
 122:Core/Src/oled.c ****     }
 520              		.loc 1 122 9 is_stmt 1 view .LVU99
 521 000c C0B2     		uxtb	r0, r0
 522              	.LVL53:
 122:Core/Src/oled.c ****     }
 523              		.loc 1 122 9 is_stmt 0 view .LVU100
 524 000e FFF7FEFF 		bl	Write_IIC_Command
 525              	.LVL54:
 526              		.loc 1 124 1 view .LVU101
 527 0012 FAE7     		b	.L31
ARM GAS  C:\Users\YUEJIN~1\AppData\Local\Temp\ccpkfgFJ.s 			page 27


 528              		.cfi_endproc
 529              	.LFE849:
 531              		.section	.text.OLED_Set_Pos,"ax",%progbits
 532              		.align	1
 533              		.global	OLED_Set_Pos
 534              		.syntax unified
 535              		.thumb
 536              		.thumb_func
 537              		.fpu softvfp
 539              	OLED_Set_Pos:
 540              	.LVL55:
 541              	.LFB850:
 125:Core/Src/oled.c **** 
 126:Core/Src/oled.c **** //坐标设置
 127:Core/Src/oled.c **** 
 128:Core/Src/oled.c **** void OLED_Set_Pos(unsigned char x, unsigned char y)
 129:Core/Src/oled.c **** {
 542              		.loc 1 129 1 is_stmt 1 view -0
 543              		.cfi_startproc
 544              		@ args = 0, pretend = 0, frame = 0
 545              		@ frame_needed = 0, uses_anonymous_args = 0
 546              		.loc 1 129 1 is_stmt 0 view .LVU103
 547 0000 10B5     		push	{r4, lr}
 548              	.LCFI7:
 549              		.cfi_def_cfa_offset 8
 550              		.cfi_offset 4, -8
 551              		.cfi_offset 14, -4
 552 0002 0446     		mov	r4, r0
 553 0004 0846     		mov	r0, r1
 554              	.LVL56:
 130:Core/Src/oled.c ****     OLED_WR_Byte(0xb0 + y, OLED_CMD);
 555              		.loc 1 130 5 is_stmt 1 view .LVU104
 556 0006 0021     		movs	r1, #0
 557              	.LVL57:
 558              		.loc 1 130 5 is_stmt 0 view .LVU105
 559 0008 B030     		adds	r0, r0, #176
 560 000a FFF7FEFF 		bl	OLED_WR_Byte
 561              	.LVL58:
 131:Core/Src/oled.c ****     OLED_WR_Byte(((x & 0xf0) >> 4) | 0x10, OLED_CMD);
 562              		.loc 1 131 5 is_stmt 1 view .LVU106
 563              		.loc 1 131 30 is_stmt 0 view .LVU107
 564 000e 2009     		lsrs	r0, r4, #4
 565              		.loc 1 131 5 view .LVU108
 566 0010 0021     		movs	r1, #0
 567 0012 40F01000 		orr	r0, r0, #16
 568 0016 FFF7FEFF 		bl	OLED_WR_Byte
 569              	.LVL59:
 132:Core/Src/oled.c ****     OLED_WR_Byte((x & 0x0f), OLED_CMD);
 570              		.loc 1 132 5 is_stmt 1 view .LVU109
 571 001a 0021     		movs	r1, #0
 572 001c 04F00F00 		and	r0, r4, #15
 573 0020 FFF7FEFF 		bl	OLED_WR_Byte
 574              	.LVL60:
 133:Core/Src/oled.c **** }
 575              		.loc 1 133 1 is_stmt 0 view .LVU110
 576 0024 10BD     		pop	{r4, pc}
 577              		.cfi_endproc
ARM GAS  C:\Users\YUEJIN~1\AppData\Local\Temp\ccpkfgFJ.s 			page 28


 578              	.LFE850:
 580              		.section	.text.OLED_Display_On,"ax",%progbits
 581              		.align	1
 582              		.global	OLED_Display_On
 583              		.syntax unified
 584              		.thumb
 585              		.thumb_func
 586              		.fpu softvfp
 588              	OLED_Display_On:
 589              	.LFB851:
 134:Core/Src/oled.c **** //开启OLED显示
 135:Core/Src/oled.c **** void OLED_Display_On(void)
 136:Core/Src/oled.c **** {
 590              		.loc 1 136 1 is_stmt 1 view -0
 591              		.cfi_startproc
 592              		@ args = 0, pretend = 0, frame = 0
 593              		@ frame_needed = 0, uses_anonymous_args = 0
 594 0000 08B5     		push	{r3, lr}
 595              	.LCFI8:
 596              		.cfi_def_cfa_offset 8
 597              		.cfi_offset 3, -8
 598              		.cfi_offset 14, -4
 137:Core/Src/oled.c ****     OLED_WR_Byte(0X8D, OLED_CMD); //SET DCDC命令
 599              		.loc 1 137 5 view .LVU112
 600 0002 0021     		movs	r1, #0
 601 0004 8D20     		movs	r0, #141
 602 0006 FFF7FEFF 		bl	OLED_WR_Byte
 603              	.LVL61:
 138:Core/Src/oled.c ****     OLED_WR_Byte(0X14, OLED_CMD); //DCDC ON
 604              		.loc 1 138 5 view .LVU113
 605 000a 0021     		movs	r1, #0
 606 000c 1420     		movs	r0, #20
 607 000e FFF7FEFF 		bl	OLED_WR_Byte
 608              	.LVL62:
 139:Core/Src/oled.c ****     OLED_WR_Byte(0XAF, OLED_CMD); //DISPLAY ON
 609              		.loc 1 139 5 view .LVU114
 610 0012 0021     		movs	r1, #0
 611 0014 AF20     		movs	r0, #175
 612 0016 FFF7FEFF 		bl	OLED_WR_Byte
 613              	.LVL63:
 140:Core/Src/oled.c **** }
 614              		.loc 1 140 1 is_stmt 0 view .LVU115
 615 001a 08BD     		pop	{r3, pc}
 616              		.cfi_endproc
 617              	.LFE851:
 619              		.section	.text.OLED_Display_Off,"ax",%progbits
 620              		.align	1
 621              		.global	OLED_Display_Off
 622              		.syntax unified
 623              		.thumb
 624              		.thumb_func
 625              		.fpu softvfp
 627              	OLED_Display_Off:
 628              	.LFB852:
 141:Core/Src/oled.c **** //关闭OLED显示
 142:Core/Src/oled.c **** void OLED_Display_Off(void)
 143:Core/Src/oled.c **** {
ARM GAS  C:\Users\YUEJIN~1\AppData\Local\Temp\ccpkfgFJ.s 			page 29


 629              		.loc 1 143 1 is_stmt 1 view -0
 630              		.cfi_startproc
 631              		@ args = 0, pretend = 0, frame = 0
 632              		@ frame_needed = 0, uses_anonymous_args = 0
 633 0000 08B5     		push	{r3, lr}
 634              	.LCFI9:
 635              		.cfi_def_cfa_offset 8
 636              		.cfi_offset 3, -8
 637              		.cfi_offset 14, -4
 144:Core/Src/oled.c ****     OLED_WR_Byte(0X8D, OLED_CMD); //SET DCDC命令
 638              		.loc 1 144 5 view .LVU117
 639 0002 0021     		movs	r1, #0
 640 0004 8D20     		movs	r0, #141
 641 0006 FFF7FEFF 		bl	OLED_WR_Byte
 642              	.LVL64:
 145:Core/Src/oled.c ****     OLED_WR_Byte(0X10, OLED_CMD); //DCDC OFF
 643              		.loc 1 145 5 view .LVU118
 644 000a 0021     		movs	r1, #0
 645 000c 1020     		movs	r0, #16
 646 000e FFF7FEFF 		bl	OLED_WR_Byte
 647              	.LVL65:
 146:Core/Src/oled.c ****     OLED_WR_Byte(0XAE, OLED_CMD); //DISPLAY OFF
 648              		.loc 1 146 5 view .LVU119
 649 0012 0021     		movs	r1, #0
 650 0014 AE20     		movs	r0, #174
 651 0016 FFF7FEFF 		bl	OLED_WR_Byte
 652              	.LVL66:
 147:Core/Src/oled.c **** }
 653              		.loc 1 147 1 is_stmt 0 view .LVU120
 654 001a 08BD     		pop	{r3, pc}
 655              		.cfi_endproc
 656              	.LFE852:
 658              		.section	.text.OLED_Clear,"ax",%progbits
 659              		.align	1
 660              		.global	OLED_Clear
 661              		.syntax unified
 662              		.thumb
 663              		.thumb_func
 664              		.fpu softvfp
 666              	OLED_Clear:
 667              	.LVL67:
 668              	.LFB853:
 148:Core/Src/oled.c **** //清屏函数,清完屏,整个屏幕是黑色的!和没点亮一样!!!
 149:Core/Src/oled.c **** void OLED_Clear(unsigned dat)
 150:Core/Src/oled.c **** {
 669              		.loc 1 150 1 is_stmt 1 view -0
 670              		.cfi_startproc
 671              		@ args = 0, pretend = 0, frame = 0
 672              		@ frame_needed = 0, uses_anonymous_args = 0
 673              		.loc 1 150 1 is_stmt 0 view .LVU122
 674 0000 70B5     		push	{r4, r5, r6, lr}
 675              	.LCFI10:
 676              		.cfi_def_cfa_offset 16
 677              		.cfi_offset 4, -16
 678              		.cfi_offset 5, -12
 679              		.cfi_offset 6, -8
 680              		.cfi_offset 14, -4
ARM GAS  C:\Users\YUEJIN~1\AppData\Local\Temp\ccpkfgFJ.s 			page 30


 681 0002 0546     		mov	r5, r0
 151:Core/Src/oled.c ****     uint8_t i, n;
 682              		.loc 1 151 5 is_stmt 1 view .LVU123
 152:Core/Src/oled.c ****     for (i = 0; i < 8; i++)
 683              		.loc 1 152 5 view .LVU124
 684              	.LVL68:
 685              		.loc 1 152 12 is_stmt 0 view .LVU125
 686 0004 0026     		movs	r6, #0
 687              		.loc 1 152 5 view .LVU126
 688 0006 0AE0     		b	.L42
 689              	.LVL69:
 690              	.L44:
 153:Core/Src/oled.c ****     {
 154:Core/Src/oled.c ****         OLED_WR_Byte(0xb0 + i, OLED_CMD); //设置页地址（0~7）
 155:Core/Src/oled.c ****         OLED_WR_Byte(0x00, OLED_CMD);     //设置显示位置—列低地址
 156:Core/Src/oled.c ****         OLED_WR_Byte(0x10, OLED_CMD);     //设置显示位置—列高地址
 157:Core/Src/oled.c ****         for (n = 0; n < 128; n++)
 158:Core/Src/oled.c ****             OLED_WR_Byte(dat, OLED_DATA);
 691              		.loc 1 158 13 is_stmt 1 discriminator 3 view .LVU127
 692 0008 0121     		movs	r1, #1
 693 000a 2846     		mov	r0, r5
 694 000c FFF7FEFF 		bl	OLED_WR_Byte
 695              	.LVL70:
 157:Core/Src/oled.c ****             OLED_WR_Byte(dat, OLED_DATA);
 696              		.loc 1 157 30 discriminator 3 view .LVU128
 157:Core/Src/oled.c ****             OLED_WR_Byte(dat, OLED_DATA);
 697              		.loc 1 157 31 is_stmt 0 discriminator 3 view .LVU129
 698 0010 0134     		adds	r4, r4, #1
 699              	.LVL71:
 157:Core/Src/oled.c ****             OLED_WR_Byte(dat, OLED_DATA);
 700              		.loc 1 157 31 discriminator 3 view .LVU130
 701 0012 E4B2     		uxtb	r4, r4
 702              	.LVL72:
 703              	.L43:
 157:Core/Src/oled.c ****             OLED_WR_Byte(dat, OLED_DATA);
 704              		.loc 1 157 21 is_stmt 1 discriminator 1 view .LVU131
 157:Core/Src/oled.c ****             OLED_WR_Byte(dat, OLED_DATA);
 705              		.loc 1 157 9 is_stmt 0 discriminator 1 view .LVU132
 706 0014 14F0800F 		tst	r4, #128
 707 0018 F6D0     		beq	.L44
 152:Core/Src/oled.c ****     for (i = 0; i < 8; i++)
 708              		.loc 1 152 24 is_stmt 1 discriminator 2 view .LVU133
 152:Core/Src/oled.c ****     for (i = 0; i < 8; i++)
 709              		.loc 1 152 25 is_stmt 0 discriminator 2 view .LVU134
 710 001a 0136     		adds	r6, r6, #1
 711              	.LVL73:
 152:Core/Src/oled.c ****     for (i = 0; i < 8; i++)
 712              		.loc 1 152 25 discriminator 2 view .LVU135
 713 001c F6B2     		uxtb	r6, r6
 714              	.LVL74:
 715              	.L42:
 152:Core/Src/oled.c ****     for (i = 0; i < 8; i++)
 716              		.loc 1 152 17 is_stmt 1 discriminator 1 view .LVU136
 152:Core/Src/oled.c ****     for (i = 0; i < 8; i++)
 717              		.loc 1 152 5 is_stmt 0 discriminator 1 view .LVU137
 718 001e 072E     		cmp	r6, #7
 719 0020 0ED8     		bhi	.L47
ARM GAS  C:\Users\YUEJIN~1\AppData\Local\Temp\ccpkfgFJ.s 			page 31


 154:Core/Src/oled.c ****         OLED_WR_Byte(0x00, OLED_CMD);     //设置显示位置—列低地址
 720              		.loc 1 154 9 is_stmt 1 view .LVU138
 721 0022 0021     		movs	r1, #0
 722 0024 06F1B000 		add	r0, r6, #176
 723 0028 FFF7FEFF 		bl	OLED_WR_Byte
 724              	.LVL75:
 155:Core/Src/oled.c ****         OLED_WR_Byte(0x10, OLED_CMD);     //设置显示位置—列高地址
 725              		.loc 1 155 9 view .LVU139
 726 002c 0021     		movs	r1, #0
 727 002e 0846     		mov	r0, r1
 728 0030 FFF7FEFF 		bl	OLED_WR_Byte
 729              	.LVL76:
 156:Core/Src/oled.c ****         for (n = 0; n < 128; n++)
 730              		.loc 1 156 9 view .LVU140
 731 0034 0021     		movs	r1, #0
 732 0036 1020     		movs	r0, #16
 733 0038 FFF7FEFF 		bl	OLED_WR_Byte
 734              	.LVL77:
 157:Core/Src/oled.c ****             OLED_WR_Byte(dat, OLED_DATA);
 735              		.loc 1 157 9 view .LVU141
 157:Core/Src/oled.c ****             OLED_WR_Byte(dat, OLED_DATA);
 736              		.loc 1 157 16 is_stmt 0 view .LVU142
 737 003c 0024     		movs	r4, #0
 157:Core/Src/oled.c ****             OLED_WR_Byte(dat, OLED_DATA);
 738              		.loc 1 157 9 view .LVU143
 739 003e E9E7     		b	.L43
 740              	.LVL78:
 741              	.L47:
 159:Core/Src/oled.c ****     } //更新显示
 160:Core/Src/oled.c **** }
 742              		.loc 1 160 1 view .LVU144
 743 0040 70BD     		pop	{r4, r5, r6, pc}
 744              		.loc 1 160 1 view .LVU145
 745              		.cfi_endproc
 746              	.LFE853:
 748              		.section	.text.OLED_On,"ax",%progbits
 749              		.align	1
 750              		.global	OLED_On
 751              		.syntax unified
 752              		.thumb
 753              		.thumb_func
 754              		.fpu softvfp
 756              	OLED_On:
 757              	.LFB854:
 161:Core/Src/oled.c **** void OLED_On(void)
 162:Core/Src/oled.c **** {
 758              		.loc 1 162 1 is_stmt 1 view -0
 759              		.cfi_startproc
 760              		@ args = 0, pretend = 0, frame = 0
 761              		@ frame_needed = 0, uses_anonymous_args = 0
 762 0000 38B5     		push	{r3, r4, r5, lr}
 763              	.LCFI11:
 764              		.cfi_def_cfa_offset 16
 765              		.cfi_offset 3, -16
 766              		.cfi_offset 4, -12
 767              		.cfi_offset 5, -8
 768              		.cfi_offset 14, -4
ARM GAS  C:\Users\YUEJIN~1\AppData\Local\Temp\ccpkfgFJ.s 			page 32


 163:Core/Src/oled.c ****     uint8_t i, n;
 769              		.loc 1 163 5 view .LVU147
 164:Core/Src/oled.c ****     for (i = 0; i < 8; i++)
 770              		.loc 1 164 5 view .LVU148
 771              	.LVL79:
 772              		.loc 1 164 12 is_stmt 0 view .LVU149
 773 0002 0025     		movs	r5, #0
 774              		.loc 1 164 5 view .LVU150
 775 0004 0AE0     		b	.L49
 776              	.LVL80:
 777              	.L51:
 165:Core/Src/oled.c ****     {
 166:Core/Src/oled.c ****         OLED_WR_Byte(0xb0 + i, OLED_CMD); //设置页地址（0~7）
 167:Core/Src/oled.c ****         OLED_WR_Byte(0x00, OLED_CMD);     //设置显示位置—列低地址
 168:Core/Src/oled.c ****         OLED_WR_Byte(0x10, OLED_CMD);     //设置显示位置—列高地址
 169:Core/Src/oled.c ****         for (n = 0; n < 128; n++)
 170:Core/Src/oled.c ****             OLED_WR_Byte(1, OLED_DATA);
 778              		.loc 1 170 13 is_stmt 1 discriminator 3 view .LVU151
 779 0006 0121     		movs	r1, #1
 780 0008 0846     		mov	r0, r1
 781 000a FFF7FEFF 		bl	OLED_WR_Byte
 782              	.LVL81:
 169:Core/Src/oled.c ****             OLED_WR_Byte(1, OLED_DATA);
 783              		.loc 1 169 30 discriminator 3 view .LVU152
 169:Core/Src/oled.c ****             OLED_WR_Byte(1, OLED_DATA);
 784              		.loc 1 169 31 is_stmt 0 discriminator 3 view .LVU153
 785 000e 0134     		adds	r4, r4, #1
 786              	.LVL82:
 169:Core/Src/oled.c ****             OLED_WR_Byte(1, OLED_DATA);
 787              		.loc 1 169 31 discriminator 3 view .LVU154
 788 0010 E4B2     		uxtb	r4, r4
 789              	.LVL83:
 790              	.L50:
 169:Core/Src/oled.c ****             OLED_WR_Byte(1, OLED_DATA);
 791              		.loc 1 169 21 is_stmt 1 discriminator 1 view .LVU155
 169:Core/Src/oled.c ****             OLED_WR_Byte(1, OLED_DATA);
 792              		.loc 1 169 9 is_stmt 0 discriminator 1 view .LVU156
 793 0012 14F0800F 		tst	r4, #128
 794 0016 F6D0     		beq	.L51
 164:Core/Src/oled.c ****     for (i = 0; i < 8; i++)
 795              		.loc 1 164 24 is_stmt 1 discriminator 2 view .LVU157
 164:Core/Src/oled.c ****     for (i = 0; i < 8; i++)
 796              		.loc 1 164 25 is_stmt 0 discriminator 2 view .LVU158
 797 0018 0135     		adds	r5, r5, #1
 798              	.LVL84:
 164:Core/Src/oled.c ****     for (i = 0; i < 8; i++)
 799              		.loc 1 164 25 discriminator 2 view .LVU159
 800 001a EDB2     		uxtb	r5, r5
 801              	.LVL85:
 802              	.L49:
 164:Core/Src/oled.c ****     for (i = 0; i < 8; i++)
 803              		.loc 1 164 17 is_stmt 1 discriminator 1 view .LVU160
 164:Core/Src/oled.c ****     for (i = 0; i < 8; i++)
 804              		.loc 1 164 5 is_stmt 0 discriminator 1 view .LVU161
 805 001c 072D     		cmp	r5, #7
 806 001e 0ED8     		bhi	.L54
 166:Core/Src/oled.c ****         OLED_WR_Byte(0x00, OLED_CMD);     //设置显示位置—列低地址
ARM GAS  C:\Users\YUEJIN~1\AppData\Local\Temp\ccpkfgFJ.s 			page 33


 807              		.loc 1 166 9 is_stmt 1 view .LVU162
 808 0020 0021     		movs	r1, #0
 809 0022 05F1B000 		add	r0, r5, #176
 810 0026 FFF7FEFF 		bl	OLED_WR_Byte
 811              	.LVL86:
 167:Core/Src/oled.c ****         OLED_WR_Byte(0x10, OLED_CMD);     //设置显示位置—列高地址
 812              		.loc 1 167 9 view .LVU163
 813 002a 0021     		movs	r1, #0
 814 002c 0846     		mov	r0, r1
 815 002e FFF7FEFF 		bl	OLED_WR_Byte
 816              	.LVL87:
 168:Core/Src/oled.c ****         for (n = 0; n < 128; n++)
 817              		.loc 1 168 9 view .LVU164
 818 0032 0021     		movs	r1, #0
 819 0034 1020     		movs	r0, #16
 820 0036 FFF7FEFF 		bl	OLED_WR_Byte
 821              	.LVL88:
 169:Core/Src/oled.c ****             OLED_WR_Byte(1, OLED_DATA);
 822              		.loc 1 169 9 view .LVU165
 169:Core/Src/oled.c ****             OLED_WR_Byte(1, OLED_DATA);
 823              		.loc 1 169 16 is_stmt 0 view .LVU166
 824 003a 0024     		movs	r4, #0
 169:Core/Src/oled.c ****             OLED_WR_Byte(1, OLED_DATA);
 825              		.loc 1 169 9 view .LVU167
 826 003c E9E7     		b	.L50
 827              	.LVL89:
 828              	.L54:
 171:Core/Src/oled.c ****     } //更新显示
 172:Core/Src/oled.c **** }
 829              		.loc 1 172 1 view .LVU168
 830 003e 38BD     		pop	{r3, r4, r5, pc}
 831              		.loc 1 172 1 view .LVU169
 832              		.cfi_endproc
 833              	.LFE854:
 835              		.section	.text.OLED_ShowChar,"ax",%progbits
 836              		.align	1
 837              		.global	OLED_ShowChar
 838              		.syntax unified
 839              		.thumb
 840              		.thumb_func
 841              		.fpu softvfp
 843              	OLED_ShowChar:
 844              	.LVL90:
 845              	.LFB855:
 173:Core/Src/oled.c **** //在指定位置显示一个字符,包括部分字符
 174:Core/Src/oled.c **** //x:0~127
 175:Core/Src/oled.c **** //y:0~63
 176:Core/Src/oled.c **** //size:选择字体 16/12
 177:Core/Src/oled.c **** void OLED_ShowChar(uint8_t x, uint8_t y, char chr, uint8_t Char_Size)
 178:Core/Src/oled.c **** {
 846              		.loc 1 178 1 is_stmt 1 view -0
 847              		.cfi_startproc
 848              		@ args = 0, pretend = 0, frame = 0
 849              		@ frame_needed = 0, uses_anonymous_args = 0
 850              		.loc 1 178 1 is_stmt 0 view .LVU171
 851 0000 F8B5     		push	{r3, r4, r5, r6, r7, lr}
 852              	.LCFI12:
ARM GAS  C:\Users\YUEJIN~1\AppData\Local\Temp\ccpkfgFJ.s 			page 34


 853              		.cfi_def_cfa_offset 24
 854              		.cfi_offset 3, -24
 855              		.cfi_offset 4, -20
 856              		.cfi_offset 5, -16
 857              		.cfi_offset 6, -12
 858              		.cfi_offset 7, -8
 859              		.cfi_offset 14, -4
 860 0002 0746     		mov	r7, r0
 861 0004 0E46     		mov	r6, r1
 179:Core/Src/oled.c ****     unsigned char c = 0, i = 0;
 862              		.loc 1 179 5 is_stmt 1 view .LVU172
 863              	.LVL91:
 180:Core/Src/oled.c ****     c = chr - ' '; //得到偏移后的值
 864              		.loc 1 180 5 view .LVU173
 865              		.loc 1 180 7 is_stmt 0 view .LVU174
 866 0006 203A     		subs	r2, r2, #32
 867              	.LVL92:
 868              		.loc 1 180 7 view .LVU175
 869 0008 D5B2     		uxtb	r5, r2
 870              	.LVL93:
 181:Core/Src/oled.c ****     if (x > Max_Column - 1)
 871              		.loc 1 181 5 is_stmt 1 view .LVU176
 872              		.loc 1 181 8 is_stmt 0 view .LVU177
 873 000a 10F0800F 		tst	r0, #128
 874 000e 07D1     		bne	.L66
 875              	.LVL94:
 876              	.L56:
 182:Core/Src/oled.c ****     {
 183:Core/Src/oled.c ****         x = 0;
 184:Core/Src/oled.c ****         y = y + 2;
 185:Core/Src/oled.c ****     }
 186:Core/Src/oled.c ****     if (Char_Size == 16)
 877              		.loc 1 186 5 is_stmt 1 view .LVU178
 878              		.loc 1 186 8 is_stmt 0 view .LVU179
 879 0010 102B     		cmp	r3, #16
 880 0012 09D0     		beq	.L67
 187:Core/Src/oled.c ****     {
 188:Core/Src/oled.c ****         OLED_Set_Pos(x, y);
 189:Core/Src/oled.c ****         for (i = 0; i < 8; i++)
 190:Core/Src/oled.c ****             OLED_WR_Byte(F8X16[c * 16 + i], OLED_DATA);
 191:Core/Src/oled.c ****         OLED_Set_Pos(x, y + 1);
 192:Core/Src/oled.c ****         for (i = 0; i < 8; i++)
 193:Core/Src/oled.c ****             OLED_WR_Byte(F8X16[c * 16 + i + 8], OLED_DATA);
 194:Core/Src/oled.c ****     }
 195:Core/Src/oled.c ****     else
 196:Core/Src/oled.c ****     {
 197:Core/Src/oled.c ****         OLED_Set_Pos(x, y);
 881              		.loc 1 197 9 is_stmt 1 view .LVU180
 882 0014 3146     		mov	r1, r6
 883 0016 3846     		mov	r0, r7
 884 0018 FFF7FEFF 		bl	OLED_Set_Pos
 885              	.LVL95:
 198:Core/Src/oled.c ****         for (i = 0; i < 6; i++)
 886              		.loc 1 198 9 view .LVU181
 887              		.loc 1 198 16 is_stmt 0 view .LVU182
 888 001c 0024     		movs	r4, #0
 889              		.loc 1 198 9 view .LVU183
ARM GAS  C:\Users\YUEJIN~1\AppData\Local\Temp\ccpkfgFJ.s 			page 35


 890 001e 33E0     		b	.L63
 891              	.LVL96:
 892              	.L66:
 183:Core/Src/oled.c ****         y = y + 2;
 893              		.loc 1 183 9 is_stmt 1 view .LVU184
 184:Core/Src/oled.c ****     }
 894              		.loc 1 184 9 view .LVU185
 184:Core/Src/oled.c ****     }
 895              		.loc 1 184 11 is_stmt 0 view .LVU186
 896 0020 0236     		adds	r6, r6, #2
 897 0022 F6B2     		uxtb	r6, r6
 898              	.LVL97:
 183:Core/Src/oled.c ****         y = y + 2;
 899              		.loc 1 183 11 view .LVU187
 900 0024 0027     		movs	r7, #0
 901 0026 F3E7     		b	.L56
 902              	.LVL98:
 903              	.L67:
 188:Core/Src/oled.c ****         for (i = 0; i < 8; i++)
 904              		.loc 1 188 9 is_stmt 1 view .LVU188
 905 0028 3146     		mov	r1, r6
 906 002a 3846     		mov	r0, r7
 907 002c FFF7FEFF 		bl	OLED_Set_Pos
 908              	.LVL99:
 189:Core/Src/oled.c ****             OLED_WR_Byte(F8X16[c * 16 + i], OLED_DATA);
 909              		.loc 1 189 9 view .LVU189
 189:Core/Src/oled.c ****             OLED_WR_Byte(F8X16[c * 16 + i], OLED_DATA);
 910              		.loc 1 189 16 is_stmt 0 view .LVU190
 911 0030 0024     		movs	r4, #0
 189:Core/Src/oled.c ****             OLED_WR_Byte(F8X16[c * 16 + i], OLED_DATA);
 912              		.loc 1 189 9 view .LVU191
 913 0032 08E0     		b	.L58
 914              	.LVL100:
 915              	.L59:
 190:Core/Src/oled.c ****         OLED_Set_Pos(x, y + 1);
 916              		.loc 1 190 13 is_stmt 1 discriminator 3 view .LVU192
 190:Core/Src/oled.c ****         OLED_Set_Pos(x, y + 1);
 917              		.loc 1 190 39 is_stmt 0 discriminator 3 view .LVU193
 918 0034 04EB0513 		add	r3, r4, r5, lsl #4
 190:Core/Src/oled.c ****         OLED_Set_Pos(x, y + 1);
 919              		.loc 1 190 13 discriminator 3 view .LVU194
 920 0038 0121     		movs	r1, #1
 921 003a 154A     		ldr	r2, .L68
 922 003c D05C     		ldrb	r0, [r2, r3]	@ zero_extendqisi2
 923 003e FFF7FEFF 		bl	OLED_WR_Byte
 924              	.LVL101:
 189:Core/Src/oled.c ****             OLED_WR_Byte(F8X16[c * 16 + i], OLED_DATA);
 925              		.loc 1 189 28 is_stmt 1 discriminator 3 view .LVU195
 189:Core/Src/oled.c ****             OLED_WR_Byte(F8X16[c * 16 + i], OLED_DATA);
 926              		.loc 1 189 29 is_stmt 0 discriminator 3 view .LVU196
 927 0042 0134     		adds	r4, r4, #1
 928              	.LVL102:
 189:Core/Src/oled.c ****             OLED_WR_Byte(F8X16[c * 16 + i], OLED_DATA);
 929              		.loc 1 189 29 discriminator 3 view .LVU197
 930 0044 E4B2     		uxtb	r4, r4
 931              	.LVL103:
 932              	.L58:
ARM GAS  C:\Users\YUEJIN~1\AppData\Local\Temp\ccpkfgFJ.s 			page 36


 189:Core/Src/oled.c ****             OLED_WR_Byte(F8X16[c * 16 + i], OLED_DATA);
 933              		.loc 1 189 21 is_stmt 1 discriminator 1 view .LVU198
 189:Core/Src/oled.c ****             OLED_WR_Byte(F8X16[c * 16 + i], OLED_DATA);
 934              		.loc 1 189 9 is_stmt 0 discriminator 1 view .LVU199
 935 0046 072C     		cmp	r4, #7
 936 0048 F4D9     		bls	.L59
 191:Core/Src/oled.c ****         for (i = 0; i < 8; i++)
 937              		.loc 1 191 9 is_stmt 1 view .LVU200
 938 004a 711C     		adds	r1, r6, #1
 939 004c C9B2     		uxtb	r1, r1
 940 004e 3846     		mov	r0, r7
 941 0050 FFF7FEFF 		bl	OLED_Set_Pos
 942              	.LVL104:
 192:Core/Src/oled.c ****             OLED_WR_Byte(F8X16[c * 16 + i + 8], OLED_DATA);
 943              		.loc 1 192 9 view .LVU201
 192:Core/Src/oled.c ****             OLED_WR_Byte(F8X16[c * 16 + i + 8], OLED_DATA);
 944              		.loc 1 192 16 is_stmt 0 view .LVU202
 945 0054 0024     		movs	r4, #0
 192:Core/Src/oled.c ****             OLED_WR_Byte(F8X16[c * 16 + i + 8], OLED_DATA);
 946              		.loc 1 192 9 view .LVU203
 947 0056 09E0     		b	.L60
 948              	.LVL105:
 949              	.L61:
 193:Core/Src/oled.c ****     }
 950              		.loc 1 193 13 is_stmt 1 discriminator 3 view .LVU204
 193:Core/Src/oled.c ****     }
 951              		.loc 1 193 39 is_stmt 0 discriminator 3 view .LVU205
 952 0058 04EB0513 		add	r3, r4, r5, lsl #4
 193:Core/Src/oled.c ****     }
 953              		.loc 1 193 43 discriminator 3 view .LVU206
 954 005c 0833     		adds	r3, r3, #8
 193:Core/Src/oled.c ****     }
 955              		.loc 1 193 13 discriminator 3 view .LVU207
 956 005e 0121     		movs	r1, #1
 957 0060 0B4A     		ldr	r2, .L68
 958 0062 D05C     		ldrb	r0, [r2, r3]	@ zero_extendqisi2
 959 0064 FFF7FEFF 		bl	OLED_WR_Byte
 960              	.LVL106:
 192:Core/Src/oled.c ****             OLED_WR_Byte(F8X16[c * 16 + i + 8], OLED_DATA);
 961              		.loc 1 192 28 is_stmt 1 discriminator 3 view .LVU208
 192:Core/Src/oled.c ****             OLED_WR_Byte(F8X16[c * 16 + i + 8], OLED_DATA);
 962              		.loc 1 192 29 is_stmt 0 discriminator 3 view .LVU209
 963 0068 0134     		adds	r4, r4, #1
 964              	.LVL107:
 192:Core/Src/oled.c ****             OLED_WR_Byte(F8X16[c * 16 + i + 8], OLED_DATA);
 965              		.loc 1 192 29 discriminator 3 view .LVU210
 966 006a E4B2     		uxtb	r4, r4
 967              	.LVL108:
 968              	.L60:
 192:Core/Src/oled.c ****             OLED_WR_Byte(F8X16[c * 16 + i + 8], OLED_DATA);
 969              		.loc 1 192 21 is_stmt 1 discriminator 1 view .LVU211
 192:Core/Src/oled.c ****             OLED_WR_Byte(F8X16[c * 16 + i + 8], OLED_DATA);
 970              		.loc 1 192 9 is_stmt 0 discriminator 1 view .LVU212
 971 006c 072C     		cmp	r4, #7
 972 006e F3D9     		bls	.L61
 973 0070 0CE0     		b	.L55
 974              	.L64:
ARM GAS  C:\Users\YUEJIN~1\AppData\Local\Temp\ccpkfgFJ.s 			page 37


 199:Core/Src/oled.c ****             OLED_WR_Byte(F6x8[c * 6 + i], OLED_DATA);
 975              		.loc 1 199 13 is_stmt 1 discriminator 3 view .LVU213
 976              		.loc 1 199 33 is_stmt 0 discriminator 3 view .LVU214
 977 0072 05EB4503 		add	r3, r5, r5, lsl #1
 978              		.loc 1 199 37 discriminator 3 view .LVU215
 979 0076 04EB4303 		add	r3, r4, r3, lsl #1
 980              		.loc 1 199 13 discriminator 3 view .LVU216
 981 007a 0121     		movs	r1, #1
 982 007c 054A     		ldr	r2, .L68+4
 983 007e D05C     		ldrb	r0, [r2, r3]	@ zero_extendqisi2
 984 0080 FFF7FEFF 		bl	OLED_WR_Byte
 985              	.LVL109:
 198:Core/Src/oled.c ****             OLED_WR_Byte(F6x8[c * 6 + i], OLED_DATA);
 986              		.loc 1 198 28 is_stmt 1 discriminator 3 view .LVU217
 198:Core/Src/oled.c ****             OLED_WR_Byte(F6x8[c * 6 + i], OLED_DATA);
 987              		.loc 1 198 29 is_stmt 0 discriminator 3 view .LVU218
 988 0084 0134     		adds	r4, r4, #1
 989              	.LVL110:
 198:Core/Src/oled.c ****             OLED_WR_Byte(F6x8[c * 6 + i], OLED_DATA);
 990              		.loc 1 198 29 discriminator 3 view .LVU219
 991 0086 E4B2     		uxtb	r4, r4
 992              	.LVL111:
 993              	.L63:
 198:Core/Src/oled.c ****             OLED_WR_Byte(F6x8[c * 6 + i], OLED_DATA);
 994              		.loc 1 198 21 is_stmt 1 discriminator 1 view .LVU220
 198:Core/Src/oled.c ****             OLED_WR_Byte(F6x8[c * 6 + i], OLED_DATA);
 995              		.loc 1 198 9 is_stmt 0 discriminator 1 view .LVU221
 996 0088 052C     		cmp	r4, #5
 997 008a F2D9     		bls	.L64
 998              	.L55:
 200:Core/Src/oled.c ****     }
 201:Core/Src/oled.c **** }
 999              		.loc 1 201 1 view .LVU222
 1000 008c F8BD     		pop	{r3, r4, r5, r6, r7, pc}
 1001              	.LVL112:
 1002              	.L69:
 1003              		.loc 1 201 1 view .LVU223
 1004 008e 00BF     		.align	2
 1005              	.L68:
 1006 0090 00000000 		.word	.LANCHOR0
 1007 0094 00000000 		.word	.LANCHOR1
 1008              		.cfi_endproc
 1009              	.LFE855:
 1011              		.section	.text.OLED_Init,"ax",%progbits
 1012              		.align	1
 1013              		.global	OLED_Init
 1014              		.syntax unified
 1015              		.thumb
 1016              		.thumb_func
 1017              		.fpu softvfp
 1019              	OLED_Init:
 1020              	.LFB856:
 202:Core/Src/oled.c **** 
 203:Core/Src/oled.c **** //初始化SSD1306
 204:Core/Src/oled.c **** void OLED_Init(void)
 205:Core/Src/oled.c **** {
 1021              		.loc 1 205 1 is_stmt 1 view -0
ARM GAS  C:\Users\YUEJIN~1\AppData\Local\Temp\ccpkfgFJ.s 			page 38


 1022              		.cfi_startproc
 1023              		@ args = 0, pretend = 0, frame = 0
 1024              		@ frame_needed = 0, uses_anonymous_args = 0
 1025 0000 08B5     		push	{r3, lr}
 1026              	.LCFI13:
 1027              		.cfi_def_cfa_offset 8
 1028              		.cfi_offset 3, -8
 1029              		.cfi_offset 14, -4
 206:Core/Src/oled.c ****     // LL_mDelay(200);
 207:Core/Src/oled.c **** 
 208:Core/Src/oled.c ****     OLED_WR_Byte(0xAE, OLED_CMD); //--display off
 1030              		.loc 1 208 5 view .LVU225
 1031 0002 0021     		movs	r1, #0
 1032 0004 AE20     		movs	r0, #174
 1033 0006 FFF7FEFF 		bl	OLED_WR_Byte
 1034              	.LVL113:
 209:Core/Src/oled.c ****     OLED_WR_Byte(0x00, OLED_CMD); //---set low column address
 1035              		.loc 1 209 5 view .LVU226
 1036 000a 0021     		movs	r1, #0
 1037 000c 0846     		mov	r0, r1
 1038 000e FFF7FEFF 		bl	OLED_WR_Byte
 1039              	.LVL114:
 210:Core/Src/oled.c ****     OLED_WR_Byte(0x10, OLED_CMD); //---set high column address
 1040              		.loc 1 210 5 view .LVU227
 1041 0012 0021     		movs	r1, #0
 1042 0014 1020     		movs	r0, #16
 1043 0016 FFF7FEFF 		bl	OLED_WR_Byte
 1044              	.LVL115:
 211:Core/Src/oled.c ****     OLED_WR_Byte(0x40, OLED_CMD); //--set start line address
 1045              		.loc 1 211 5 view .LVU228
 1046 001a 0021     		movs	r1, #0
 1047 001c 4020     		movs	r0, #64
 1048 001e FFF7FEFF 		bl	OLED_WR_Byte
 1049              	.LVL116:
 212:Core/Src/oled.c ****     OLED_WR_Byte(0xB0, OLED_CMD); //--set page address
 1050              		.loc 1 212 5 view .LVU229
 1051 0022 0021     		movs	r1, #0
 1052 0024 B020     		movs	r0, #176
 1053 0026 FFF7FEFF 		bl	OLED_WR_Byte
 1054              	.LVL117:
 213:Core/Src/oled.c ****     OLED_WR_Byte(0x81, OLED_CMD); // contract control
 1055              		.loc 1 213 5 view .LVU230
 1056 002a 0021     		movs	r1, #0
 1057 002c 8120     		movs	r0, #129
 1058 002e FFF7FEFF 		bl	OLED_WR_Byte
 1059              	.LVL118:
 214:Core/Src/oled.c ****     OLED_WR_Byte(0xFF, OLED_CMD); //--128
 1060              		.loc 1 214 5 view .LVU231
 1061 0032 0021     		movs	r1, #0
 1062 0034 FF20     		movs	r0, #255
 1063 0036 FFF7FEFF 		bl	OLED_WR_Byte
 1064              	.LVL119:
 215:Core/Src/oled.c ****     OLED_WR_Byte(0xA1, OLED_CMD); //set segment remap
 1065              		.loc 1 215 5 view .LVU232
 1066 003a 0021     		movs	r1, #0
 1067 003c A120     		movs	r0, #161
 1068 003e FFF7FEFF 		bl	OLED_WR_Byte
ARM GAS  C:\Users\YUEJIN~1\AppData\Local\Temp\ccpkfgFJ.s 			page 39


 1069              	.LVL120:
 216:Core/Src/oled.c ****     OLED_WR_Byte(0xA6, OLED_CMD); //--normal / reverse
 1070              		.loc 1 216 5 view .LVU233
 1071 0042 0021     		movs	r1, #0
 1072 0044 A620     		movs	r0, #166
 1073 0046 FFF7FEFF 		bl	OLED_WR_Byte
 1074              	.LVL121:
 217:Core/Src/oled.c ****     OLED_WR_Byte(0xA8, OLED_CMD); //--set multiplex ratio(1 to 64)
 1075              		.loc 1 217 5 view .LVU234
 1076 004a 0021     		movs	r1, #0
 1077 004c A820     		movs	r0, #168
 1078 004e FFF7FEFF 		bl	OLED_WR_Byte
 1079              	.LVL122:
 218:Core/Src/oled.c ****     OLED_WR_Byte(0x3F, OLED_CMD); //--1/32 duty
 1080              		.loc 1 218 5 view .LVU235
 1081 0052 0021     		movs	r1, #0
 1082 0054 3F20     		movs	r0, #63
 1083 0056 FFF7FEFF 		bl	OLED_WR_Byte
 1084              	.LVL123:
 219:Core/Src/oled.c ****     OLED_WR_Byte(0xC8, OLED_CMD); //Com scan direction
 1085              		.loc 1 219 5 view .LVU236
 1086 005a 0021     		movs	r1, #0
 1087 005c C820     		movs	r0, #200
 1088 005e FFF7FEFF 		bl	OLED_WR_Byte
 1089              	.LVL124:
 220:Core/Src/oled.c ****     OLED_WR_Byte(0xD3, OLED_CMD); //-set display offset
 1090              		.loc 1 220 5 view .LVU237
 1091 0062 0021     		movs	r1, #0
 1092 0064 D320     		movs	r0, #211
 1093 0066 FFF7FEFF 		bl	OLED_WR_Byte
 1094              	.LVL125:
 221:Core/Src/oled.c ****     OLED_WR_Byte(0x00, OLED_CMD); //
 1095              		.loc 1 221 5 view .LVU238
 1096 006a 0021     		movs	r1, #0
 1097 006c 0846     		mov	r0, r1
 1098 006e FFF7FEFF 		bl	OLED_WR_Byte
 1099              	.LVL126:
 222:Core/Src/oled.c **** 
 223:Core/Src/oled.c ****     OLED_WR_Byte(0xD5, OLED_CMD); //set osc division
 1100              		.loc 1 223 5 view .LVU239
 1101 0072 0021     		movs	r1, #0
 1102 0074 D520     		movs	r0, #213
 1103 0076 FFF7FEFF 		bl	OLED_WR_Byte
 1104              	.LVL127:
 224:Core/Src/oled.c ****     OLED_WR_Byte(0x80, OLED_CMD); //
 1105              		.loc 1 224 5 view .LVU240
 1106 007a 0021     		movs	r1, #0
 1107 007c 8020     		movs	r0, #128
 1108 007e FFF7FEFF 		bl	OLED_WR_Byte
 1109              	.LVL128:
 225:Core/Src/oled.c **** 
 226:Core/Src/oled.c ****     OLED_WR_Byte(0xD8, OLED_CMD); //set area color mode off
 1110              		.loc 1 226 5 view .LVU241
 1111 0082 0021     		movs	r1, #0
 1112 0084 D820     		movs	r0, #216
 1113 0086 FFF7FEFF 		bl	OLED_WR_Byte
 1114              	.LVL129:
ARM GAS  C:\Users\YUEJIN~1\AppData\Local\Temp\ccpkfgFJ.s 			page 40


 227:Core/Src/oled.c ****     OLED_WR_Byte(0x05, OLED_CMD); //
 1115              		.loc 1 227 5 view .LVU242
 1116 008a 0021     		movs	r1, #0
 1117 008c 0520     		movs	r0, #5
 1118 008e FFF7FEFF 		bl	OLED_WR_Byte
 1119              	.LVL130:
 228:Core/Src/oled.c **** 
 229:Core/Src/oled.c ****     OLED_WR_Byte(0xD9, OLED_CMD); //Set Pre-Charge Period
 1120              		.loc 1 229 5 view .LVU243
 1121 0092 0021     		movs	r1, #0
 1122 0094 D920     		movs	r0, #217
 1123 0096 FFF7FEFF 		bl	OLED_WR_Byte
 1124              	.LVL131:
 230:Core/Src/oled.c ****     OLED_WR_Byte(0xF1, OLED_CMD); //
 1125              		.loc 1 230 5 view .LVU244
 1126 009a 0021     		movs	r1, #0
 1127 009c F120     		movs	r0, #241
 1128 009e FFF7FEFF 		bl	OLED_WR_Byte
 1129              	.LVL132:
 231:Core/Src/oled.c **** 
 232:Core/Src/oled.c ****     OLED_WR_Byte(0xDA, OLED_CMD); //set com pin configuartion
 1130              		.loc 1 232 5 view .LVU245
 1131 00a2 0021     		movs	r1, #0
 1132 00a4 DA20     		movs	r0, #218
 1133 00a6 FFF7FEFF 		bl	OLED_WR_Byte
 1134              	.LVL133:
 233:Core/Src/oled.c ****     OLED_WR_Byte(0x12, OLED_CMD); //
 1135              		.loc 1 233 5 view .LVU246
 1136 00aa 0021     		movs	r1, #0
 1137 00ac 1220     		movs	r0, #18
 1138 00ae FFF7FEFF 		bl	OLED_WR_Byte
 1139              	.LVL134:
 234:Core/Src/oled.c **** 
 235:Core/Src/oled.c ****     OLED_WR_Byte(0xDB, OLED_CMD); //set Vcomh
 1140              		.loc 1 235 5 view .LVU247
 1141 00b2 0021     		movs	r1, #0
 1142 00b4 DB20     		movs	r0, #219
 1143 00b6 FFF7FEFF 		bl	OLED_WR_Byte
 1144              	.LVL135:
 236:Core/Src/oled.c ****     OLED_WR_Byte(0x30, OLED_CMD); //
 1145              		.loc 1 236 5 view .LVU248
 1146 00ba 0021     		movs	r1, #0
 1147 00bc 3020     		movs	r0, #48
 1148 00be FFF7FEFF 		bl	OLED_WR_Byte
 1149              	.LVL136:
 237:Core/Src/oled.c **** 
 238:Core/Src/oled.c ****     OLED_WR_Byte(0x8D, OLED_CMD); //set charge pump enable
 1150              		.loc 1 238 5 view .LVU249
 1151 00c2 0021     		movs	r1, #0
 1152 00c4 8D20     		movs	r0, #141
 1153 00c6 FFF7FEFF 		bl	OLED_WR_Byte
 1154              	.LVL137:
 239:Core/Src/oled.c ****     OLED_WR_Byte(0x14, OLED_CMD); //
 1155              		.loc 1 239 5 view .LVU250
 1156 00ca 0021     		movs	r1, #0
 1157 00cc 1420     		movs	r0, #20
 1158 00ce FFF7FEFF 		bl	OLED_WR_Byte
ARM GAS  C:\Users\YUEJIN~1\AppData\Local\Temp\ccpkfgFJ.s 			page 41


 1159              	.LVL138:
 240:Core/Src/oled.c **** 
 241:Core/Src/oled.c ****     OLED_WR_Byte(0xAF, OLED_CMD); //--turn on oled panel
 1160              		.loc 1 241 5 view .LVU251
 1161 00d2 0021     		movs	r1, #0
 1162 00d4 AF20     		movs	r0, #175
 1163 00d6 FFF7FEFF 		bl	OLED_WR_Byte
 1164              	.LVL139:
 242:Core/Src/oled.c **** }
 1165              		.loc 1 242 1 is_stmt 0 view .LVU252
 1166 00da 08BD     		pop	{r3, pc}
 1167              		.cfi_endproc
 1168              	.LFE856:
 1170              		.section	.text.OLED_ShowString,"ax",%progbits
 1171              		.align	1
 1172              		.global	OLED_ShowString
 1173              		.syntax unified
 1174              		.thumb
 1175              		.thumb_func
 1176              		.fpu softvfp
 1178              	OLED_ShowString:
 1179              	.LVL140:
 1180              	.LFB857:
 243:Core/Src/oled.c **** 
 244:Core/Src/oled.c **** void OLED_ShowString(uint8_t x, uint8_t y, char *chr, uint8_t Char_Size)
 245:Core/Src/oled.c **** {
 1181              		.loc 1 245 1 is_stmt 1 view -0
 1182              		.cfi_startproc
 1183              		@ args = 0, pretend = 0, frame = 0
 1184              		@ frame_needed = 0, uses_anonymous_args = 0
 1185              		.loc 1 245 1 is_stmt 0 view .LVU254
 1186 0000 2DE9F041 		push	{r4, r5, r6, r7, r8, lr}
 1187              	.LCFI14:
 1188              		.cfi_def_cfa_offset 24
 1189              		.cfi_offset 4, -24
 1190              		.cfi_offset 5, -20
 1191              		.cfi_offset 6, -16
 1192              		.cfi_offset 7, -12
 1193              		.cfi_offset 8, -8
 1194              		.cfi_offset 14, -4
 1195 0004 0546     		mov	r5, r0
 1196 0006 8846     		mov	r8, r1
 1197 0008 1746     		mov	r7, r2
 1198 000a 1E46     		mov	r6, r3
 246:Core/Src/oled.c ****     unsigned char j = 0;
 1199              		.loc 1 246 5 is_stmt 1 view .LVU255
 1200              	.LVL141:
 247:Core/Src/oled.c ****     while (chr[j] != '\0')
 1201              		.loc 1 247 5 view .LVU256
 246:Core/Src/oled.c ****     unsigned char j = 0;
 1202              		.loc 1 246 19 is_stmt 0 view .LVU257
 1203 000c 0024     		movs	r4, #0
 1204              		.loc 1 247 11 view .LVU258
 1205 000e 04E0     		b	.L73
 1206              	.LVL142:
 1207              	.L76:
 248:Core/Src/oled.c ****     {
ARM GAS  C:\Users\YUEJIN~1\AppData\Local\Temp\ccpkfgFJ.s 			page 42


 249:Core/Src/oled.c ****         OLED_ShowChar(x, y, chr[j], Char_Size);
 250:Core/Src/oled.c ****         x += Char_Size > 10 ? 8 : 6;
 1208              		.loc 1 250 11 view .LVU259
 1209 0010 0620     		movs	r0, #6
 1210              	.L74:
 1211              		.loc 1 250 11 discriminator 4 view .LVU260
 1212 0012 2844     		add	r0, r0, r5
 1213 0014 C5B2     		uxtb	r5, r0
 1214              	.LVL143:
 251:Core/Src/oled.c ****         j++;
 1215              		.loc 1 251 9 is_stmt 1 discriminator 4 view .LVU261
 1216              		.loc 1 251 10 is_stmt 0 discriminator 4 view .LVU262
 1217 0016 0134     		adds	r4, r4, #1
 1218              	.LVL144:
 1219              		.loc 1 251 10 discriminator 4 view .LVU263
 1220 0018 E4B2     		uxtb	r4, r4
 1221              	.LVL145:
 1222              	.L73:
 247:Core/Src/oled.c ****     while (chr[j] != '\0')
 1223              		.loc 1 247 11 is_stmt 1 view .LVU264
 247:Core/Src/oled.c ****     while (chr[j] != '\0')
 1224              		.loc 1 247 15 is_stmt 0 view .LVU265
 1225 001a 3A5D     		ldrb	r2, [r7, r4]	@ zero_extendqisi2
 247:Core/Src/oled.c ****     while (chr[j] != '\0')
 1226              		.loc 1 247 11 view .LVU266
 1227 001c 42B1     		cbz	r2, .L78
 249:Core/Src/oled.c ****         x += Char_Size > 10 ? 8 : 6;
 1228              		.loc 1 249 9 is_stmt 1 view .LVU267
 1229 001e 3346     		mov	r3, r6
 1230 0020 4146     		mov	r1, r8
 1231 0022 2846     		mov	r0, r5
 1232 0024 FFF7FEFF 		bl	OLED_ShowChar
 1233              	.LVL146:
 250:Core/Src/oled.c ****         j++;
 1234              		.loc 1 250 9 view .LVU268
 250:Core/Src/oled.c ****         j++;
 1235              		.loc 1 250 11 is_stmt 0 view .LVU269
 1236 0028 0A2E     		cmp	r6, #10
 1237 002a F1D9     		bls	.L76
 1238 002c 0820     		movs	r0, #8
 1239 002e F0E7     		b	.L74
 1240              	.L78:
 252:Core/Src/oled.c ****     }
 253:Core/Src/oled.c **** }
 1241              		.loc 1 253 1 view .LVU270
 1242 0030 BDE8F081 		pop	{r4, r5, r6, r7, r8, pc}
 1243              		.loc 1 253 1 view .LVU271
 1244              		.cfi_endproc
 1245              	.LFE857:
 1247              		.global	F8X16
 1248              		.global	F6x8
 1249              		.section	.rodata.F6x8,"a"
 1250              		.align	2
 1251              		.set	.LANCHOR1,. + 0
 1254              	F6x8:
 1255 0000 00000000 		.ascii	"\000\000\000\000\000\000\000\000\000/\000\000\000\000"
 1255      00000000 
ARM GAS  C:\Users\YUEJIN~1\AppData\Local\Temp\ccpkfgFJ.s 			page 43


 1255      002F0000 
 1255      0000
 1256 000e 07000700 		.ascii	"\007\000\007\000\000\024\177\024\177\024\000$*\177*"
 1256      00147F14 
 1256      7F140024 
 1256      2A7F2A
 1257 001d 12006264 		.ascii	"\022\000bd\010\023#\0006IU\"P\000\000\005\003\000\000"
 1257      08132300 
 1257      36495522 
 1257      50000005 
 1257      030000
 1258 0030 00001C22 		.ascii	"\000\000\034\"A\000\000\000A\"\034\000\000\024\010>"
 1258      41000000 
 1258      41221C00 
 1258      0014083E 
 1259 0040 08140008 		.ascii	"\010\024\000\010\010>\010\010\000\000\000\240`\000\000"
 1259      083E0808 
 1259      000000A0 
 1259      600000
 1260 004f 08080808 		.ascii	"\010\010\010\010\010\000\000``\000\000\000 \020\010"
 1260      08000060 
 1260      60000000 
 1260      201008
 1261 005e 0402003E 		.ascii	"\004\002\000>QIE>\000\000B\177@\000\000BaQIF\000!AE"
 1261      5149453E 
 1261      0000427F 
 1261      40000042 
 1261      61514946 
 1262 0076 4B310018 		.ascii	"K1\000\030\024\022\177\020\000'EEE9\000<JII0\000\001"
 1262      14127F10 
 1262      00274545 
 1262      4539003C 
 1262      4A494930 
 1263 008c 71090503 		.ascii	"q\011\005\003\0006III6\000\006II)\036\000\00066\000"
 1263      00364949 
 1263      49360006 
 1263      4949291E 
 1263      00003636 
 1264 00a1 00000056 		.ascii	"\000\000\000V6\000\000\000\010\024\"A\000\000\024\024"
 1264      36000000 
 1264      08142241 
 1264      00001414 
 1265 00b1 14141400 		.ascii	"\024\024\024\000\000A\"\024\010\000\002\001Q\011\006"
 1265      00412214 
 1265      08000201 
 1265      510906
 1266 00c0 00324959 		.ascii	"\0002IYQ>\000|\022\021\022|\000\177III6\000>AAA\"\000"
 1266      513E007C 
 1266      1211127C 
 1266      007F4949 
 1266      4936003E 
 1267 00d9 7F414122 		.ascii	"\177AA\"\034\000\177IIIA\000\177\011\011\011\001\000"
 1267      1C007F49 
 1267      49494100 
 1267      7F090909 
 1267      0100
 1268 00eb 3E414949 		.ascii	">AIIz\000\177\010\010\010\177\000\000A\177A\000\000"
ARM GAS  C:\Users\YUEJIN~1\AppData\Local\Temp\ccpkfgFJ.s 			page 44


 1268      7A007F08 
 1268      08087F00 
 1268      00417F41 
 1268      0000
 1269 00fd 2040413F 		.ascii	" @A?\001\000\177\010\024\"A\000\177@@@@\000\177\002"
 1269      01007F08 
 1269      14224100 
 1269      7F404040 
 1269      40007F02 
 1270 0111 0C027F00 		.ascii	"\014\002\177\000\177\004\010\020\177\000>AAA>\000\177"
 1270      7F040810 
 1270      7F003E41 
 1270      41413E00 
 1270      7F
 1271 0122 09090906 		.ascii	"\011\011\011\006\000>AQ!^\000\177\011\031)F\000FIII"
 1271      003E4151 
 1271      215E007F 
 1271      09192946 
 1271      00464949 
 1272 0137 31000101 		.ascii	"1\000\001\001\177\001\001\000?@@@?\000\037 @ \037\000"
 1272      7F010100 
 1272      3F404040 
 1272      3F001F20 
 1272      40201F00 
 1273 014b 3F403840 		.ascii	"?@8@?\000c\024\010\024c\000\007\010p\010\007\000aQI"
 1273      3F006314 
 1273      08146300 
 1273      07087008 
 1273      07006151 
 1274 0160 45430000 		.ascii	"EC\000\000\177AA\000\000U*U*U\000\000AA\177\000\000"
 1274      7F414100 
 1274      00552A55 
 1274      2A550000 
 1274      41417F00 
 1275 0175 04020102 		.ascii	"\004\002\001\002\004\000@@@@@\000\000\001\002\004\000"
 1275      04004040 
 1275      40404000 
 1275      00010204 
 1275      00
 1276 0186 00205454 		.ascii	"\000 TTTx\000\177HDD8\0008DDD \0008DDH\177\0008TTT\030"
 1276      5478007F 
 1276      48444438 
 1276      00384444 
 1276      44200038 
 1277 01a4 00087E09 		.ascii	"\000\010~\011\001\002\000\030\244\244\244|\000\177\010"
 1277      01020018 
 1277      A4A4A47C 
 1277      007F08
 1278 01b3 04047800 		.ascii	"\004\004x\000\000D}@\000\000@\200\204}\000\000\177\020"
 1278      00447D40 
 1278      00004080 
 1278      847D0000 
 1278      7F10
 1279 01c5 28440000 		.ascii	"(D\000\000\000A\177@\000\000|\004\030\004x\000|\010"
 1279      00417F40 
 1279      00007C04 
 1279      18047800 
ARM GAS  C:\Users\YUEJIN~1\AppData\Local\Temp\ccpkfgFJ.s 			page 45


 1279      7C08
 1280 01d7 04047800 		.ascii	"\004\004x\0008DDD8\000\374$$$\030\000\030$$\030\374"
 1280      38444444 
 1280      3800FC24 
 1280      24241800 
 1280      18242418 
 1281 01ec 007C0804 		.ascii	"\000|\010\004\004\010\000HTTT \000\004?D@ \000<@@ |"
 1281      04080048 
 1281      54545420 
 1281      00043F44 
 1281      4020003C 
 1282 0204 001C2040 		.ascii	"\000\034 @ \034\000<@0@<\000D(\020(D\000\034\240\240"
 1282      201C003C 
 1282      4030403C 
 1282      00442810 
 1282      2844001C 
 1283 021a A07C0044 		.ascii	"\240|\000DdTLD\024\024\024\024\024\024"
 1283      64544C44 
 1283      14141414 
 1283      1414
 1284              		.section	.rodata.F8X16,"a"
 1285              		.align	2
 1286              		.set	.LANCHOR0,. + 0
 1289              	F8X16:
 1290 0000 00000000 		.ascii	"\000\000\000\000\000\000\000\000\000\000\000\000\000"
 1290      00000000 
 1290      00000000 
 1290      00
 1291 000d 00000000 		.ascii	"\000\000\000\000\000\000\370\000\000\000\000\000\000"
 1291      0000F800 
 1291      00000000 
 1291      00
 1292 001a 00333000 		.ascii	"\00030\000\000\000\000\020\014\006\020\014\006\000\000"
 1292      00000010 
 1292      0C06100C 
 1292      060000
 1293 0029 00000000 		.ascii	"\000\000\000\000\000\000\000@\300x@\300x@\000\004?\004"
 1293      00000040 
 1293      C07840C0 
 1293      78400004 
 1293      3F04
 1294 003b 043F0404 		.ascii	"\004?\004\004\000\000p\210\374\0100\000\000\000\030"
 1294      00007088 
 1294      FC083000 
 1294      000018
 1295 004a 20FF211E 		.ascii	" \377!\036\000\000\360\010\360\000\340\030\000\000\000"
 1295      0000F008 
 1295      F000E018 
 1295      000000
 1296 0059 211C031E 		.ascii	"!\034\003\036!\036\000\000\360\010\210p\000\000\000"
 1296      211E0000 
 1296      F0088870 
 1296      000000
 1297 0068 1E212324 		.ascii	"\036!#$\031'!\020\020\026\016\000\000\000\000\000\000"
 1297      19272110 
 1297      10160E00 
 1297      00000000 
ARM GAS  C:\Users\YUEJIN~1\AppData\Local\Temp\ccpkfgFJ.s 			page 46


 1297      00
 1298 0079 00000000 		.ascii	"\000\000\000\000\000\000\000\000\000\000\340\030\004"
 1298      00000000 
 1298      0000E018 
 1298      04
 1299 0086 02000000 		.ascii	"\002\000\000\000\000\007\030 @\000\000\002\004\030\340"
 1299      00071820 
 1299      40000002 
 1299      0418E0
 1300 0095 00000000 		.ascii	"\000\000\000\000@ \030\007\000\000\000@@\200\360\200"
 1300      40201807 
 1300      00000040 
 1300      4080F080 
 1301 00a5 40400002 		.ascii	"@@\000\002\002\001\017\001\002\002\000\000\000\000\360"
 1301      02010F01 
 1301      02020000 
 1301      0000F0
 1302 00b4 00000000 		.ascii	"\000\000\000\000\001\001\001\037\001\001\001\000\000"
 1302      0101011F 
 1302      01010100 
 1302      00
 1303 00c1 00000000 		.ascii	"\000\000\000\000\000\000\000\200\260p\000\000\000\000"
 1303      00000080 
 1303      B0700000 
 1303      0000
 1304 00cf 00000000 		.ascii	"\000\000\000\000\000\000\000\000\000\000\001\001\001"
 1304      00000000 
 1304      00000101 
 1304      01
 1305 00dc 01010101 		.ascii	"\001\001\001\001\000\000\000\000\000\000\000\000\000"
 1305      00000000 
 1305      00000000 
 1305      00
 1306 00e9 30300000 		.ascii	"00\000\000\000\000\000\000\000\000\000\200`\030\004"
 1306      00000000 
 1306      00000080 
 1306      601804
 1307 00f8 00601806 		.ascii	"\000`\030\006\001\000\000\000\000\340\020\010\010\020"
 1307      01000000 
 1307      00E01008 
 1307      0810
 1308 0106 E000000F 		.ascii	"\340\000\000\017\020  \020\017\000\000\020\020\370\000"
 1308      10202010 
 1308      0F000010 
 1308      10F800
 1309 0115 00000000 		.ascii	"\000\000\000\000  ?  \000\000\000p\010\010\010\210p"
 1309      20203F20 
 1309      20000000 
 1309      70080808 
 1309      8870
 1310 0127 00003028 		.ascii	"\000\0000($\"!0\000\0000\010\210\210H0\000\000\030 "
 1310      24222130 
 1310      00003008 
 1310      88884830 
 1310      00001820 
 1311 013b 2020110E 		.ascii	"  \021\016\000\000\000\300 \020\370\000\000\000\007"
 1311      000000C0 
ARM GAS  C:\Users\YUEJIN~1\AppData\Local\Temp\ccpkfgFJ.s 			page 47


 1311      2010F800 
 1311      000007
 1312 014a 0424243F 		.ascii	"\004$$?$\000\000\370\010\210\210\010\010\000\000\031"
 1312      240000F8 
 1312      08888808 
 1312      08000019 
 1313 015a 21202011 		.ascii	"!  \021\016\000\000\340\020\210\210\030\000\000\000"
 1313      0E0000E0 
 1313      10888818 
 1313      000000
 1314 0169 0F112020 		.ascii	"\017\021  \021\016\000\0008\010\010\3108\010\000\000"
 1314      110E0000 
 1314      380808C8 
 1314      38080000 
 1315 0179 00003F00 		.ascii	"\000\000?\000\000\000\000\000p\210\010\010\210p\000"
 1315      00000000 
 1315      70880808 
 1315      887000
 1316 0188 001C2221 		.ascii	"\000\034\"!!\"\034\000\000\340\020\010\010\020\340\000"
 1316      21221C00 
 1316      00E01008 
 1316      0810E000 
 1317 0198 00003122 		.ascii	"\000\0001\"\"\021\017\000\000\000\000\300\300\000\000"
 1317      22110F00 
 1317      000000C0 
 1317      C00000
 1318 01a7 00000000 		.ascii	"\000\000\000\00000\000\000\000\000\000\000\200\000\000"
 1318      30300000 
 1318      00000000 
 1318      800000
 1319 01b6 00000000 		.ascii	"\000\000\000\000\200`\000\000\000\000\000\000\200@ "
 1319      80600000 
 1319      00000000 
 1319      804020
 1320 01c5 10080000 		.ascii	"\020\010\000\000\001\002\004\010\020 \000@@@@@@@\000"
 1320      01020408 
 1320      10200040 
 1320      40404040 
 1320      404000
 1321 01d8 04040404 		.ascii	"\004\004\004\004\004\004\004\000\000\010\020 @\200\000"
 1321      04040400 
 1321      00081020 
 1321      408000
 1322 01e7 00002010 		.ascii	"\000\000 \020\010\004\002\001\000\000pH\010\010\010"
 1322      08040201 
 1322      00007048 
 1322      080808
 1323 01f6 F0000000 		.ascii	"\360\000\000\000\00006\001\000\000\3000\310(\350\020"
 1323      00303601 
 1323      0000C030 
 1323      C828E810 
 1324 0206 E0000718 		.ascii	"\340\000\007\030'$#\024\013\000\000\000\3008\340\000"
 1324      27242314 
 1324      0B000000 
 1324      C038E000 
 1325 0216 0000203C 		.ascii	"\000\000 <#\002\002'8 \010\370\210\210\210p\000\000"
 1325      23020227 
ARM GAS  C:\Users\YUEJIN~1\AppData\Local\Temp\ccpkfgFJ.s 			page 48


 1325      382008F8 
 1325      88888870 
 1325      0000
 1326 0228 203F2020 		.ascii	" ?   \021\016\000\3000\010\010\010\0108\000\007\030"
 1326      20110E00 
 1326      C0300808 
 1326      08083800 
 1326      0718
 1327 023a 20202010 		.ascii	"   \020\010\000\010\370\010\010\010\020\340\000 ?  "
 1327      080008F8 
 1327      08080810 
 1327      E000203F 
 1327      2020
 1328 024c 20100F00 		.ascii	" \020\017\000\010\370\210\210\350\010\020\000 ?  # "
 1328      08F88888 
 1328      E8081000 
 1328      203F2020 
 1328      2320
 1329 025e 180008F8 		.ascii	"\030\000\010\370\210\210\350\010\020\000 ? \000\003"
 1329      8888E808 
 1329      1000203F 
 1329      200003
 1330 026d 000000C0 		.ascii	"\000\000\000\3000\010\010\0108\000\000\007\030  \"\036"
 1330      30080808 
 1330      38000007 
 1330      18202022 
 1330      1E
 1331 027e 020008F8 		.ascii	"\002\000\010\370\010\000\000\010\370\010 ?!\001\001"
 1331      08000008 
 1331      F808203F 
 1331      210101
 1332 028d 213F2000 		.ascii	"!? \000\010\010\370\010\010\000\000\000  ?  \000\000"
 1332      0808F808 
 1332      08000000 
 1332      20203F20 
 1332      200000
 1333 02a0 00000808 		.ascii	"\000\000\010\010\370\010\010\000\300\200\200\200\177"
 1333      F8080800 
 1333      C0808080 
 1333      7F
 1334 02ad 00000008 		.ascii	"\000\000\000\010\370\210\300(\030\010\000 ? \001&8 "
 1334      F888C028 
 1334      18080020 
 1334      3F200126 
 1334      3820
 1335 02bf 0008F808 		.ascii	"\000\010\370\010\000\000\000\000\000 ?    0\000\010"
 1335      00000000 
 1335      00203F20 
 1335      20202030 
 1335      0008
 1336 02d1 F8F800F8 		.ascii	"\370\370\000\370\370\010\000 ?\000?\000? \000\010\370"
 1336      F8080020 
 1336      3F003F00 
 1336      3F200008 
 1336      F8
 1337 02e2 30C00008 		.ascii	"0\300\000\010\370\010 ? \000\007\030?\000\340\020\010"
 1337      F808203F 
ARM GAS  C:\Users\YUEJIN~1\AppData\Local\Temp\ccpkfgFJ.s 			page 49


 1337      20000718 
 1337      3F00E010 
 1337      08
 1338 02f3 080810E0 		.ascii	"\010\010\020\340\000\017\020   \020\017\000\010\370"
 1338      000F1020 
 1338      2020100F 
 1338      0008F8
 1339 0302 08080808 		.ascii	"\010\010\010\010\360\000 ?!\001\001\001\000\000\340"
 1339      F000203F 
 1339      21010101 
 1339      0000E0
 1340 0311 10080808 		.ascii	"\020\010\010\010\020\340\000\017\030$$8PO\000\010\370"
 1340      10E0000F 
 1340      18242438 
 1340      504F0008 
 1340      F8
 1341 0322 88888888 		.ascii	"\210\210\210\210p\000 ? \000\003\0140 \000p\210\010"
 1341      7000203F 
 1341      2000030C 
 1341      30200070 
 1341      8808
 1342 0334 08083800 		.ascii	"\010\0108\000\0008 !!\"\034\000\030\010\010\370\010"
 1342      00382021 
 1342      21221C00 
 1342      180808F8 
 1342      08
 1343 0345 08180000 		.ascii	"\010\030\000\000\000 ? \000\000\000\010\370\010\000"
 1343      00203F20 
 1343      00000008 
 1343      F80800
 1344 0354 0008F808 		.ascii	"\000\010\370\010\000\037    \037\000\010x\210\000\000"
 1344      001F2020 
 1344      20201F00 
 1344      08788800 
 1344      00
 1345 0365 C8380800 		.ascii	"\3108\010\000\000\0078\016\001\000\000\370\010\000\370"
 1345      0007380E 
 1345      010000F8 
 1345      0800F8
 1346 0374 0008F800 		.ascii	"\000\010\370\000\003<\007\000\007<\003\000\010\030h"
 1346      033C0700 
 1346      073C0300 
 1346      081868
 1347 0383 80806818 		.ascii	"\200\200h\030\010 0,\003\003,0 \0108\310\000\3108\010"
 1347      0820302C 
 1347      03032C30 
 1347      200838C8 
 1347      00C83808 
 1348 0397 00000020 		.ascii	"\000\000\000 ? \000\000\000\020\010\010\010\3108\010"
 1348      3F200000 
 1348      00100808 
 1348      08C83808 
 1349 03a7 00203826 		.ascii	"\000 8&!  \030\000\000\000\000\376\002\002\002\000\000"
 1349      21202018 
 1349      00000000 
 1349      FE020202 
 1349      0000
ARM GAS  C:\Users\YUEJIN~1\AppData\Local\Temp\ccpkfgFJ.s 			page 50


 1350 03b9 00007F40 		.ascii	"\000\000\177@@@\000\000\0140\300\000\000\000\000\000"
 1350      40400000 
 1350      0C30C000 
 1350      00000000 
 1351 03c9 00000106 		.ascii	"\000\000\001\0068\300\000\000\002\002\002\376\000\000"
 1351      38C00000 
 1351      020202FE 
 1351      0000
 1352 03d7 00004040 		.ascii	"\000\000@@@\177\000\000\000\000\000\004\002\002\002"
 1352      407F0000 
 1352      00000004 
 1352      020202
 1353 03e6 04000000 		.ascii	"\004\000\000\000\000\000\000\000\000\000\000\000\000"
 1353      00000000 
 1353      00000000 
 1353      00
 1354 03f3 00000000 		.ascii	"\000\000\000\000\000\200\200\200\200\200\200\200\200"
 1354      00808080 
 1354      80808080 
 1354      80
 1355 0400 00020204 		.ascii	"\000\002\002\004\000\000\000\000\000\000\000\000\000"
 1355      00000000 
 1355      00000000 
 1355      00
 1356 040d 00000000 		.ascii	"\000\000\000\000\000\200\200\200\200\000\000\000\031"
 1356      00808080 
 1356      80000000 
 1356      19
 1357 041a 24222222 		.ascii	"$\"\"\"? \010\370\000\200\200\000\000\000\000?\021 "
 1357      3F2008F8 
 1357      00808000 
 1357      0000003F 
 1357      1120
 1358 042c 20110E00 		.ascii	" \021\016\000\000\000\000\200\200\200\000\000\000\016"
 1358      00000080 
 1358      80800000 
 1358      000E
 1359 043a 11202020 		.ascii	"\021   \021\000\000\000\000\200\200\210\370\000\000"
 1359      11000000 
 1359      00808088 
 1359      F80000
 1360 0449 0E112020 		.ascii	"\016\021  \020? \000\000\200\200\200\200\000\000\000"
 1360      103F2000 
 1360      00808080 
 1360      80000000 
 1361 0459 1F222222 		.ascii	"\037\"\"\"\"\023\000\000\200\200\360\210\210\210\030"
 1361      22130000 
 1361      8080F088 
 1361      888818
 1362 0468 0020203F 		.ascii	"\000  ?  \000\000\000\000\200\200\200\200\200\000\000"
 1362      20200000 
 1362      00008080 
 1362      80808000 
 1362      00
 1363 0479 6B949494 		.ascii	"k\224\224\224\223`\000\010\370\000\200\200\200\000\000"
 1363      93600008 
 1363      F8008080 
ARM GAS  C:\Users\YUEJIN~1\AppData\Local\Temp\ccpkfgFJ.s 			page 51


 1363      800000
 1364 0488 203F2100 		.ascii	" ?!\000\000 ? \000\200\230\230\000\000\000\000\000 "
 1364      00203F20 
 1364      00809898 
 1364      00000000 
 1364      0020
 1365 049a 203F2020 		.ascii	" ?  \000\000\000\000\000\200\230\230\000\000\000\300"
 1365      00000000 
 1365      00809898 
 1365      000000C0 
 1366 04aa 8080807F 		.ascii	"\200\200\200\177\000\000\010\370\000\000\200\200\200"
 1366      000008F8 
 1366      00008080 
 1366      80
 1367 04b7 00203F24 		.ascii	"\000 ?$\002-0 \000\000\010\010\370\000\000\000\000\000"
 1367      022D3020 
 1367      00000808 
 1367      F8000000 
 1367      0000
 1368 04c9 20203F20 		.ascii	"  ?  \000\000\200\200\200\200\200\200\200\000 ? \000"
 1368      20000080 
 1368      80808080 
 1368      80800020 
 1368      3F2000
 1369 04dc 3F20003F 		.ascii	"? \000?\200\200\000\200\200\200\000\000 ?!\000\000 "
 1369      80800080 
 1369      80800000 
 1369      203F2100 
 1369      0020
 1370 04ee 3F200000 		.ascii	"? \000\000\200\200\200\200\000\000\000\037    \037\000"
 1370      80808080 
 1370      0000001F 
 1370      20202020 
 1370      1F00
 1371 0500 80800080 		.ascii	"\200\200\000\200\200\000\000\000\200\377\241  \021\016"
 1371      80000000 
 1371      80FFA120 
 1371      20110E
 1372 050f 00000000 		.ascii	"\000\000\000\000\200\200\200\200\000\000\016\021  \240"
 1372      80808080 
 1372      00000E11 
 1372      2020A0
 1373 051e FF808080 		.ascii	"\377\200\200\200\200\000\200\200\200\000  ?! \000\001"
 1373      80008080 
 1373      80002020 
 1373      3F212000 
 1373      01
 1374 052f 00000080 		.ascii	"\000\000\000\200\200\200\200\200\000\0003$$$$\031\000"
 1374      80808080 
 1374      00003324 
 1374      24242419 
 1374      00
 1375 0540 008080E0 		.ascii	"\000\200\200\340\200\200\000\000\000\000\000\037  \000"
 1375      80800000 
 1375      0000001F 
 1375      202000
 1376 054f 00808000 		.ascii	"\000\200\200\000\000\000\200\200\000\000\037   \020"
ARM GAS  C:\Users\YUEJIN~1\AppData\Local\Temp\ccpkfgFJ.s 			page 52


 1376      00008080 
 1376      00001F20 
 1376      202010
 1377 055e 3F208080 		.ascii	"? \200\200\200\000\000\200\200\200\000\001\0160\010"
 1377      80000080 
 1377      80800001 
 1377      0E3008
 1378 056d 06010080 		.ascii	"\006\001\000\200\200\000\200\000\200\200\200\0170\014"
 1378      80008000 
 1378      8080800F 
 1378      300C
 1379 057b 030C300F 		.ascii	"\003\0140\017\000\000\200\200\000\200\200\200\000\000"
 1379      00008080 
 1379      00808080 
 1379      0000
 1380 0589 20312E0E 		.ascii	" 1.\0161 \000\200\200\200\000\000\200\200\200\200\201"
 1380      31200080 
 1380      80800000 
 1380      80808080 
 1380      81
 1381 059a 8E701806 		.ascii	"\216p\030\006\001\000\000\200\200\200\200\200\200\000"
 1381      01000080 
 1381      80808080 
 1381      8000
 1382 05a8 0021302C 		.ascii	"\000!0,\"!0\000\000\000\000\000\200|\002\002\000\000"
 1382      22213000 
 1382      00000000 
 1382      807C0202 
 1382      0000
 1383 05ba 0000003F 		.ascii	"\000\000\000?@@\000\000\000\000\377\000\000\000\000"
 1383      40400000 
 1383      0000FF00 
 1383      000000
 1384 05c9 000000FF 		.ascii	"\000\000\000\377\000\000\000\000\002\002|\200\000\000"
 1384      00000000 
 1384      02027C80 
 1384      0000
 1385 05d7 00004040 		.ascii	"\000\000@@?\000\000\000\000\000\006\001\001\002\002"
 1385      3F000000 
 1385      00000601 
 1385      010202
 1386 05e6 04040000 		.ascii	"\004\004\000\000\000\000\000\000\000\000"
 1386      00000000 
 1386      0000
 1387              		.text
 1388              	.Letext0:
 1389              		.file 3 "c:\\program files (x86)\\gnu arm embedded toolchain\\10 2020-q4-major\\arm-none-eabi\\inc
 1390              		.file 4 "c:\\program files (x86)\\gnu arm embedded toolchain\\10 2020-q4-major\\arm-none-eabi\\inc
 1391              		.file 5 "Drivers/CMSIS/Device/ST/STM32F1xx/Include/stm32f103xb.h"
 1392              		.file 6 "Drivers/STM32F1xx_HAL_Driver/Inc/stm32f1xx_ll_dma.h"
 1393              		.file 7 "Drivers/STM32F1xx_HAL_Driver/Inc/stm32f1xx_ll_tim.h"
 1394              		.file 8 "Core/Inc/oledfont.h"
ARM GAS  C:\Users\YUEJIN~1\AppData\Local\Temp\ccpkfgFJ.s 			page 53

